
build/telosb/main.exe:     file format elf32-msp430


Disassembly of section .text:

00004000 <__watchdog_support>:
    4000:	55 42 20 01 	mov.b	&0x0120,r5	
    4004:	35 d0 08 5a 	bis	#23048,	r5	;#0x5a08
    4008:	82 45 60 12 	mov	r5,	&0x1260	

0000400c <__init_stack>:
    400c:	31 40 00 39 	mov	#14592,	r1	;#0x3900

00004010 <__do_copy_data>:
    4010:	3f 40 10 00 	mov	#16,	r15	;#0x0010
    4014:	0f 93       	tst	r15		
    4016:	08 24       	jz	$+18     	;abs 0x4028
    4018:	92 42 60 12 20 01 	mov	&0x1260,&0x0120	
    401e:	2f 83       	decd	r15		
    4020:	9f 4f fc 6c 00 11 	mov	27900(r15),4352(r15);0x6cfc(r15), 0x1100(r15)
    4026:	f8 23       	jnz	$-14     	;abs 0x4018

00004028 <__do_clear_bss>:
    4028:	3f 40 50 01 	mov	#336,	r15	;#0x0150
    402c:	0f 93       	tst	r15		
    402e:	07 24       	jz	$+16     	;abs 0x403e
    4030:	92 42 60 12 20 01 	mov	&0x1260,&0x0120	
    4036:	1f 83       	dec	r15		
    4038:	cf 43 10 11 	mov.b	#0,	4368(r15);r3 As==00, 0x1110(r15)
    403c:	f9 23       	jnz	$-12     	;abs 0x4030

0000403e <main>:
    403e:	21 83       	decd	r1		
    4040:	0b 42       	mov	r2,	r11	
    4042:	3b f2       	and	#8,	r11	;r2 As==11
    4044:	32 c2       	dint			
    4046:	03 43       	nop			
    4048:	3d 40 0e 00 	mov	#14,	r13	;#0x000e
    404c:	3e 40 ff 00 	mov	#255,	r14	;#0x00ff
    4050:	3f 40 40 11 	mov	#4416,	r15	;#0x1140
    4054:	b0 12 3a 6c 	call	#0x6c3a	
    4058:	f2 43 4d 12 	mov.b	#-1,	&0x124d	;r3 As==11
    405c:	f2 43 5d 12 	mov.b	#-1,	&0x125d	;r3 As==11
    4060:	b2 40 80 5a 20 01 	mov	#23168,	&0x0120	;#0x5a80
    4066:	a2 42 60 01 	mov	#4,	&0x0160	;r2 As==10
    406a:	a2 42 80 01 	mov	#4,	&0x0180	;r2 As==10
    406e:	b2 40 20 02 60 01 	mov	#544,	&0x0160	;#0x0220
    4074:	b2 40 20 01 80 01 	mov	#288,	&0x0180	;#0x0120
    407a:	f2 40 84 ff 57 00 	mov.b	#-124,	&0x0057	;#0xff84
    4080:	c2 43 58 00 	mov.b	#0,	&0x0058	;r3 As==00
    4084:	b2 40 00 40 82 01 	mov	#16384,	&0x0182	;#0x4000
    408a:	3c 40 0b 00 	mov	#11,	r12	;#0x000b
    408e:	3f 40 00 04 	mov	#1024,	r15	;#0x0400
    4092:	0e 43       	clr	r14		
    4094:	0d 4f       	mov	r15,	r13	
    4096:	0d de       	bis	r14,	r13	
    4098:	59 42 57 00 	mov.b	&0x0057,r9	
    409c:	0a 4d       	mov	r13,	r10	
    409e:	8a 10       	swpb	r10		
    40a0:	7a f0 07 00 	and.b	#7,	r10	;#0x0007
    40a4:	79 f0 f8 ff 	and.b	#-8,	r9	;#0xfff8
    40a8:	4a d9       	bis.b	r9,	r10	
    40aa:	c2 4a 57 00 	mov.b	r10,	&0x0057	
    40ae:	c2 4d 56 00 	mov.b	r13,	&0x0056	
    40b2:	39 40 03 00 	mov	#3,	r9	;#0x0003
    40b6:	0a 43       	clr	r10		
    40b8:	08 43       	clr	r8		
    40ba:	0f 3c       	jmp	$+32     	;abs 0x40da
    40bc:	18 42 90 01 	mov	&0x0190,r8	
    40c0:	38 52       	add	#8,	r8	;r2 As==11
    40c2:	82 48 92 01 	mov	r8,	&0x0192	
    40c6:	b2 f0 fe ff 82 01 	and	#-2,	&0x0182	;#0xfffe
    40cc:	92 b3 82 01 	bit	#1,	&0x0182	;r3 As==01
    40d0:	fd 27       	jz	$-4      	;abs 0x40cc
    40d2:	17 42 70 01 	mov	&0x0170,r7	
    40d6:	08 4a       	mov	r10,	r8	
    40d8:	0a 47       	mov	r7,	r10	
    40da:	39 53       	add	#-1,	r9	;r3 As==11
    40dc:	ef 23       	jnz	$-32     	;abs 0x40bc
    40de:	0a 88       	sub	r8,	r10	
    40e0:	3a 90 01 04 	cmp	#1025,	r10	;#0x0401
    40e4:	01 2c       	jc	$+4      	;abs 0x40e8
    40e6:	0e 4d       	mov	r13,	r14	
    40e8:	0d 4e       	mov	r14,	r13	
    40ea:	3d f0 e0 00 	and	#224,	r13	;#0x00e0
    40ee:	3d 90 e0 00 	cmp	#224,	r13	;#0x00e0
    40f2:	04 24       	jz	$+10     	;abs 0x40fc
    40f4:	12 c3       	clrc			
    40f6:	0f 10       	rrc	r15		
    40f8:	3c 53       	add	#-1,	r12	;r3 As==11
    40fa:	cc 23       	jnz	$-102    	;abs 0x4094
    40fc:	5d 42 57 00 	mov.b	&0x0057,r13	
    4100:	0f 4e       	mov	r14,	r15	
    4102:	8f 10       	swpb	r15		
    4104:	7f f0 07 00 	and.b	#7,	r15	;#0x0007
    4108:	7d f0 f8 ff 	and.b	#-8,	r13	;#0xfff8
    410c:	4f dd       	bis.b	r13,	r15	
    410e:	c2 4f 57 00 	mov.b	r15,	&0x0057	
    4112:	c2 4e 56 00 	mov.b	r14,	&0x0056	
    4116:	5f 42 57 00 	mov.b	&0x0057,r15	
    411a:	7f f0 07 00 	and.b	#7,	r15	;#0x0007
    411e:	7f d0 80 ff 	bis.b	#-128,	r15	;#0xff80
    4122:	c2 4f 57 00 	mov.b	r15,	&0x0057	
    4126:	e2 42 58 00 	mov.b	#4,	&0x0058	;r2 As==10
    412a:	f2 f0 fd ff 00 00 	and.b	#-3,	&0x0000	;#0xfffd
    4130:	82 43 70 01 	mov	#0,	&0x0170	;r3 As==00
    4134:	b2 40 02 02 60 01 	mov	#514,	&0x0160	;#0x0202
    413a:	82 43 90 01 	mov	#0,	&0x0190	;r3 As==00
    413e:	b2 40 02 01 80 01 	mov	#258,	&0x0180	;#0x0102
    4144:	1f 42 60 01 	mov	&0x0160,r15	
    4148:	3f f0 cf ff 	and	#-49,	r15	;#0xffcf
    414c:	3f d0 20 00 	bis	#32,	r15	;#0x0020
    4150:	82 4f 60 01 	mov	r15,	&0x0160	
    4154:	1f 42 80 01 	mov	&0x0180,r15	
    4158:	3f f0 cf ff 	and	#-49,	r15	;#0xffcf
    415c:	3f d0 20 00 	bis	#32,	r15	;#0x0020
    4160:	82 4f 80 01 	mov	r15,	&0x0180	
    4164:	c2 43 26 00 	mov.b	#0,	&0x0026	;r3 As==00
    4168:	c2 43 2e 00 	mov.b	#0,	&0x002e	;r3 As==00
    416c:	c2 43 1b 00 	mov.b	#0,	&0x001b	;r3 As==00
    4170:	c2 43 1f 00 	mov.b	#0,	&0x001f	;r3 As==00
    4174:	c2 43 33 00 	mov.b	#0,	&0x0033	;r3 As==00
    4178:	c2 43 37 00 	mov.b	#0,	&0x0037	;r3 As==00
    417c:	c2 43 21 00 	mov.b	#0,	&0x0021	;r3 As==00
    4180:	f2 40 e0 ff 22 00 	mov.b	#-32,	&0x0022	;#0xffe0
    4186:	f2 40 30 00 29 00 	mov.b	#48,	&0x0029	;#0x0030
    418c:	f2 40 7b 00 2a 00 	mov.b	#123,	&0x002a	;#0x007b
    4192:	c2 43 19 00 	mov.b	#0,	&0x0019	;r3 As==00
    4196:	f2 40 f1 ff 1a 00 	mov.b	#-15,	&0x001a	;#0xfff1
    419c:	f2 40 dd ff 1d 00 	mov.b	#-35,	&0x001d	;#0xffdd
    41a2:	f2 40 fd ff 1e 00 	mov.b	#-3,	&0x001e	;#0xfffd
    41a8:	f2 43 31 00 	mov.b	#-1,	&0x0031	;r3 As==11
    41ac:	f2 43 32 00 	mov.b	#-1,	&0x0032	;r3 As==11
    41b0:	c2 43 35 00 	mov.b	#0,	&0x0035	;r3 As==00
    41b4:	f2 43 36 00 	mov.b	#-1,	&0x0036	;r3 As==11
    41b8:	c2 43 25 00 	mov.b	#0,	&0x0025	;r3 As==00
    41bc:	c2 43 2d 00 	mov.b	#0,	&0x002d	;r3 As==00
    41c0:	1e 42 70 01 	mov	&0x0170,r14	
    41c4:	1f 42 70 01 	mov	&0x0170,r15	
    41c8:	0f 8e       	sub	r14,	r15	
    41ca:	3f 90 01 28 	cmp	#10241,	r15	;#0x2801
    41ce:	fa 2b       	jnc	$-10     	;abs 0x41c4
    41d0:	e2 d3 1a 00 	bis.b	#2,	&0x001a	;r3 As==10
    41d4:	f2 d2 1a 00 	bis.b	#8,	&0x001a	;r2 As==11
    41d8:	f2 d0 80 ff 1e 00 	bis.b	#-128,	&0x001e	;#0xff80
    41de:	f2 d0 10 00 1e 00 	bis.b	#16,	&0x001e	;#0x0010
    41e4:	f2 d0 80 ff 1d 00 	bis.b	#-128,	&0x001d	;#0xff80
    41ea:	f2 d0 10 00 1d 00 	bis.b	#16,	&0x001d	;#0x0010
    41f0:	03 43       	nop			
    41f2:	03 43       	nop			
    41f4:	f2 f0 ef ff 1d 00 	and.b	#-17,	&0x001d	;#0xffef
    41fa:	f2 f0 f7 ff 19 00 	and.b	#-9,	&0x0019	;#0xfff7
    4200:	5f 43       	mov.b	#1,	r15	;r3 As==01
    4202:	b0 12 08 46 	call	#0x4608	
    4206:	4f 43       	clr.b	r15		
    4208:	b0 12 08 46 	call	#0x4608	
    420c:	5f 43       	mov.b	#1,	r15	;r3 As==01
    420e:	b0 12 08 46 	call	#0x4608	
    4212:	5f 43       	mov.b	#1,	r15	;r3 As==01
    4214:	b0 12 08 46 	call	#0x4608	
    4218:	5f 43       	mov.b	#1,	r15	;r3 As==01
    421a:	b0 12 08 46 	call	#0x4608	
    421e:	4f 43       	clr.b	r15		
    4220:	b0 12 08 46 	call	#0x4608	
    4224:	4f 43       	clr.b	r15		
    4226:	b0 12 08 46 	call	#0x4608	
    422a:	5f 43       	mov.b	#1,	r15	;r3 As==01
    422c:	b0 12 08 46 	call	#0x4608	
    4230:	f2 d0 10 00 1d 00 	bis.b	#16,	&0x001d	;#0x0010
    4236:	f2 d2 19 00 	bis.b	#8,	&0x0019	;r2 As==11
    423a:	e2 d3 19 00 	bis.b	#2,	&0x0019	;r3 As==10
    423e:	f2 d0 10 00 32 00 	bis.b	#16,	&0x0032	;#0x0010
    4244:	f2 d0 20 00 32 00 	bis.b	#32,	&0x0032	;#0x0020
    424a:	f2 d0 40 00 32 00 	bis.b	#64,	&0x0032	;#0x0040
    4250:	b0 12 2a 4b 	call	#0x4b2a	
    4254:	b0 12 3e 4b 	call	#0x4b3e	
    4258:	b0 12 52 4b 	call	#0x4b52	
    425c:	b0 12 d0 63 	call	#0x63d0	
    4260:	4f 93       	tst.b	r15		
    4262:	fc 23       	jnz	$-6      	;abs 0x425c
    4264:	f2 43 5a 11 	mov.b	#-1,	&0x115a	;r3 As==11
    4268:	b2 43 2c 11 	mov	#-1,	&0x112c	;r3 As==11
    426c:	c2 43 2e 11 	mov.b	#0,	&0x112e	;r3 As==00
    4270:	b2 43 30 11 	mov	#-1,	&0x1130	;r3 As==11
    4274:	c2 43 32 11 	mov.b	#0,	&0x1132	;r3 As==00
    4278:	b2 43 34 11 	mov	#-1,	&0x1134	;r3 As==11
    427c:	c2 43 36 11 	mov.b	#0,	&0x1136	;r3 As==00
    4280:	b2 43 38 11 	mov	#-1,	&0x1138	;r3 As==11
    4284:	c2 43 3a 11 	mov.b	#0,	&0x113a	;r3 As==00
    4288:	b0 12 14 45 	call	#0x4514	
    428c:	c2 4f f2 11 	mov.b	r15,	&0x11f2	
    4290:	1f 42 0e 11 	mov	&0x110e,r15	
    4294:	1f 53       	inc	r15		
    4296:	82 4f 64 11 	mov	r15,	&0x1164	
    429a:	82 43 66 11 	mov	#0,	&0x1166	;r3 As==00
    429e:	b2 f0 ef ff 86 01 	and	#-17,	&0x0186	;#0xffef
    42a4:	b2 40 00 40 86 01 	mov	#16384,	&0x0186	;#0x4000
    42aa:	b2 40 18 12 24 11 	mov	#4632,	&0x1124	;#0x1218
    42b0:	f2 f0 ef ff 22 00 	and.b	#-17,	&0x0022	;#0xffef
    42b6:	e2 d2 1e 00 	bis.b	#4,	&0x001e	;r2 As==10
    42ba:	f2 f0 fd ff 1e 00 	and.b	#-3,	&0x001e	;#0xfffd
    42c0:	b2 f0 ef ff 82 01 	and	#-17,	&0x0182	;#0xffef
    42c6:	b2 40 00 40 82 01 	mov	#16384,	&0x0182	;#0x4000
    42cc:	f2 43 74 11 	mov.b	#-1,	&0x1174	;r3 As==11
    42d0:	c2 43 d8 11 	mov.b	#0,	&0x11d8	;r3 As==00
    42d4:	c2 43 d9 11 	mov.b	#0,	&0x11d9	;r3 As==00
    42d8:	c2 43 da 11 	mov.b	#0,	&0x11da	;r3 As==00
    42dc:	c2 43 db 11 	mov.b	#0,	&0x11db	;r3 As==00
    42e0:	e2 d2 1e 00 	bis.b	#4,	&0x001e	;r2 As==10
    42e4:	f2 d0 40 00 1e 00 	bis.b	#64,	&0x001e	;#0x0040
    42ea:	f2 d0 20 00 1e 00 	bis.b	#32,	&0x001e	;#0x0020
    42f0:	0f 42       	mov	r2,	r15	
    42f2:	32 c2       	dint			
    42f4:	03 43       	nop			
    42f6:	1e 42 04 11 	mov	&0x1104,r14	
    42fa:	3f f2       	and	#8,	r15	;r2 As==11
    42fc:	01 24       	jz	$+4      	;abs 0x4300
    42fe:	32 d2       	eint			
    4300:	82 4e 7a 11 	mov	r14,	&0x117a	
    4304:	b0 12 8a 46 	call	#0x468a	
    4308:	82 4c e8 11 	mov	r12,	&0x11e8	
    430c:	82 4d ea 11 	mov	r13,	&0x11ea	
    4310:	82 4e ec 11 	mov	r14,	&0x11ec	
    4314:	82 4f ee 11 	mov	r15,	&0x11ee	
    4318:	d2 42 03 11 5e 11 	mov.b	&0x1103,&0x115e	
    431e:	c2 43 5f 11 	mov.b	#0,	&0x115f	;r3 As==00
    4322:	f2 40 1f 00 d6 11 	mov.b	#31,	&0x11d6	;#0x001f
    4328:	f2 40 1a 00 f0 11 	mov.b	#26,	&0x11f0	;#0x001a
    432e:	b0 12 8a 46 	call	#0x468a	
    4332:	82 4c e8 11 	mov	r12,	&0x11e8	
    4336:	82 4d ea 11 	mov	r13,	&0x11ea	
    433a:	82 4e ec 11 	mov	r14,	&0x11ec	
    433e:	82 4f ee 11 	mov	r15,	&0x11ee	
    4342:	3f 40 e8 11 	mov	#4584,	r15	;#0x11e8
    4346:	0e 4f       	mov	r15,	r14	
    4348:	3e 50 07 00 	add	#7,	r14	;#0x0007
    434c:	0d 43       	clr	r13		
    434e:	6c 4f       	mov.b	@r15,	r12	
    4350:	ef 4e 00 00 	mov.b	@r14,	0(r15)	;0x0000(r15)
    4354:	ce 4c 00 00 	mov.b	r12,	0(r14)	;0x0000(r14)
    4358:	1d 53       	inc	r13		
    435a:	1f 53       	inc	r15		
    435c:	3e 53       	add	#-1,	r14	;r3 As==11
    435e:	2d 92       	cmp	#4,	r13	;r2 As==10
    4360:	f6 23       	jnz	$-18     	;abs 0x434e
    4362:	d2 43 53 11 	mov.b	#1,	&0x1153	;r3 As==01
    4366:	c2 43 59 12 	mov.b	#0,	&0x1259	;r3 As==00
    436a:	d2 43 60 11 	mov.b	#1,	&0x1160	;r3 As==01
    436e:	c2 43 e6 11 	mov.b	#0,	&0x11e6	;r3 As==00
    4372:	b0 12 d0 63 	call	#0x63d0	
    4376:	4f 93       	tst.b	r15		
    4378:	fc 23       	jnz	$-6      	;abs 0x4372
    437a:	0b 93       	tst	r11		
    437c:	01 24       	jz	$+4      	;abs 0x4380
    437e:	32 d2       	eint			
    4380:	32 d2       	eint			
    4382:	5f 43       	mov.b	#1,	r15	;r3 As==01
    4384:	b0 12 54 53 	call	#0x5354	
    4388:	0f 93       	tst	r15		
    438a:	1f 20       	jnz	$+64     	;abs 0x43ca
    438c:	0f 42       	mov	r2,	r15	
    438e:	3f f2       	and	#8,	r15	;r2 As==11
    4390:	32 c2       	dint			
    4392:	03 43       	nop			
    4394:	82 93 1c 11 	tst	&0x111c	
    4398:	04 24       	jz	$+10     	;abs 0x43a2
    439a:	0f 93       	tst	r15		
    439c:	1e 24       	jz	$+62     	;abs 0x43da
    439e:	32 d2       	eint			
    43a0:	1c 3c       	jmp	$+58     	;abs 0x43da
    43a2:	92 43 1c 11 	mov	#1,	&0x111c	;r3 As==01
    43a6:	0f 93       	tst	r15		
    43a8:	01 24       	jz	$+4      	;abs 0x43ac
    43aa:	32 d2       	eint			
    43ac:	0f 42       	mov	r2,	r15	
    43ae:	32 c2       	dint			
    43b0:	03 43       	nop			
    43b2:	f2 d0 20 00 1d 00 	bis.b	#32,	&0x001d	;#0x0020
    43b8:	3f f2       	and	#8,	r15	;r2 As==11
    43ba:	01 24       	jz	$+4      	;abs 0x43be
    43bc:	32 d2       	eint			
    43be:	3e 40 14 00 	mov	#20,	r14	;#0x0014
    43c2:	0f 43       	clr	r15		
    43c4:	b0 12 c6 4a 	call	#0x4ac6	
    43c8:	08 3c       	jmp	$+18     	;abs 0x43da
    43ca:	6f 43       	mov.b	#2,	r15	;r3 As==10
    43cc:	b0 12 f0 48 	call	#0x48f0	
    43d0:	4f 93       	tst.b	r15		
    43d2:	03 20       	jnz	$+8      	;abs 0x43da
    43d4:	5f 43       	mov.b	#1,	r15	;r3 As==01
    43d6:	b0 12 f0 48 	call	#0x48f0	
    43da:	0b 42       	mov	r2,	r11	
    43dc:	3b f2       	and	#8,	r11	;r2 As==11
    43de:	32 c2       	dint			
    43e0:	03 43       	nop			
    43e2:	86 3c       	jmp	$+270    	;abs 0x44f0
    43e4:	c2 93 0c 11 	tst.b	&0x110c	
    43e8:	77 24       	jz	$+240    	;abs 0x44d8
    43ea:	b2 b0 10 00 62 01 	bit	#16,	&0x0162	;#0x0010
    43f0:	08 20       	jnz	$+18     	;abs 0x4402
    43f2:	b2 b0 10 00 64 01 	bit	#16,	&0x0164	;#0x0010
    43f8:	04 20       	jnz	$+10     	;abs 0x4402
    43fa:	b2 b0 10 00 66 01 	bit	#16,	&0x0166	;#0x0010
    4400:	07 24       	jz	$+16     	;abs 0x4410
    4402:	1f 42 60 01 	mov	&0x0160,r15	
    4406:	3f f0 00 03 	and	#768,	r15	;#0x0300
    440a:	3f 90 00 02 	cmp	#512,	r15	;#0x0200
    440e:	2e 24       	jz	$+94     	;abs 0x446c
    4410:	5f 42 04 00 	mov.b	&0x0004,r15	
    4414:	3f b0 c0 00 	bit	#192,	r15	;#0x00c0
    4418:	05 24       	jz	$+12     	;abs 0x4424
    441a:	5f 42 71 00 	mov.b	&0x0071,r15	
    441e:	3f f0 20 00 	and	#32,	r15	;#0x0020
    4422:	26 20       	jnz	$+78     	;abs 0x4470
    4424:	5f 42 05 00 	mov.b	&0x0005,r15	
    4428:	3f b0 30 00 	bit	#48,	r15	;#0x0030
    442c:	05 24       	jz	$+12     	;abs 0x4438
    442e:	5f 42 79 00 	mov.b	&0x0079,r15	
    4432:	3f f0 20 00 	and	#32,	r15	;#0x0020
    4436:	1e 20       	jnz	$+62     	;abs 0x4474
    4438:	5f 42 70 00 	mov.b	&0x0070,r15	
    443c:	1f f3       	and	#1,	r15	;r3 As==01
    443e:	1c 24       	jz	$+58     	;abs 0x4478
    4440:	5f 42 71 00 	mov.b	&0x0071,r15	
    4444:	3f f0 20 00 	and	#32,	r15	;#0x0020
    4448:	1a 24       	jz	$+54     	;abs 0x447e
    444a:	5f 42 72 00 	mov.b	&0x0072,r15	
    444e:	3f f0 20 00 	and	#32,	r15	;#0x0020
    4452:	18 24       	jz	$+50     	;abs 0x4484
    4454:	5f 42 70 00 	mov.b	&0x0070,r15	
    4458:	2f f2       	and	#4,	r15	;r2 As==10
    445a:	17 24       	jz	$+48     	;abs 0x448a
    445c:	5f 42 70 00 	mov.b	&0x0070,r15	
    4460:	3f f0 20 00 	and	#32,	r15	;#0x0020
    4464:	15 20       	jnz	$+44     	;abs 0x4490
    4466:	7f 40 05 00 	mov.b	#5,	r15	;#0x0005
    446a:	13 3c       	jmp	$+40     	;abs 0x4492
    446c:	6f 43       	mov.b	#2,	r15	;r3 As==10
    446e:	11 3c       	jmp	$+36     	;abs 0x4492
    4470:	6f 43       	mov.b	#2,	r15	;r3 As==10
    4472:	0f 3c       	jmp	$+32     	;abs 0x4492
    4474:	6f 43       	mov.b	#2,	r15	;r3 As==10
    4476:	0d 3c       	jmp	$+28     	;abs 0x4492
    4478:	7f 40 05 00 	mov.b	#5,	r15	;#0x0005
    447c:	0a 3c       	jmp	$+22     	;abs 0x4492
    447e:	7f 40 05 00 	mov.b	#5,	r15	;#0x0005
    4482:	07 3c       	jmp	$+16     	;abs 0x4492
    4484:	7f 40 05 00 	mov.b	#5,	r15	;#0x0005
    4488:	04 3c       	jmp	$+10     	;abs 0x4492
    448a:	7f 40 05 00 	mov.b	#5,	r15	;#0x0005
    448e:	01 3c       	jmp	$+4      	;abs 0x4492
    4490:	6f 43       	mov.b	#2,	r15	;r3 As==10
    4492:	b2 b0 10 00 a0 01 	bit	#16,	&0x01a0	;#0x0010
    4498:	19 24       	jz	$+52     	;abs 0x44cc
    449a:	b2 b0 10 00 a2 01 	bit	#16,	&0x01a2	;#0x0010
    44a0:	05 24       	jz	$+12     	;abs 0x44ac
    44a2:	b2 b2 a2 01 	bit	#8,	&0x01a2	;r2 As==11
    44a6:	0f 24       	jz	$+32     	;abs 0x44c6
    44a8:	6f 43       	mov.b	#2,	r15	;r3 As==10
    44aa:	10 3c       	jmp	$+34     	;abs 0x44cc
    44ac:	1e 42 a2 01 	mov	&0x01a2,r14	
    44b0:	3e b0 00 04 	bit	#1024,	r14	;#0x0400
    44b4:	0b 24       	jz	$+24     	;abs 0x44cc
    44b6:	1e 42 60 01 	mov	&0x0160,r14	
    44ba:	3e f0 00 03 	and	#768,	r14	;#0x0300
    44be:	3e 90 00 02 	cmp	#512,	r14	;#0x0200
    44c2:	04 20       	jnz	$+10     	;abs 0x44cc
    44c4:	02 3c       	jmp	$+6      	;abs 0x44ca
    44c6:	4f 43       	clr.b	r15		
    44c8:	01 3c       	jmp	$+4      	;abs 0x44cc
    44ca:	6f 43       	mov.b	#2,	r15	;r3 As==10
    44cc:	7f 90 05 00 	cmp.b	#5,	r15	;#0x0005
    44d0:	01 28       	jnc	$+4      	;abs 0x44d4
    44d2:	6f 42       	mov.b	#4,	r15	;r2 As==10
    44d4:	c2 4f 22 11 	mov.b	r15,	&0x1122	
    44d8:	5f 42 22 11 	mov.b	&0x1122,r15	
    44dc:	0f 5f       	rla	r15		
    44de:	1f 4f e8 6c 	mov	27880(r15),r15	;0x6ce8(r15)
    44e2:	3f d2       	bis	#8,	r15	;r2 As==11
    44e4:	81 4f 00 00 	mov	r15,	0(r1)	;0x0000(r1)
    44e8:	22 d1       	bis	@r1,	r2	
    44ea:	32 c2       	dint			
    44ec:	03 43       	nop			
    44ee:	03 43       	nop			
    44f0:	f2 93 4d 12 	cmp.b	#-1,	&0x124d	;r3 As==11
    44f4:	77 27       	jz	$-272    	;abs 0x43e4
    44f6:	b0 12 16 4d 	call	#0x4d16	
    44fa:	7f 93       	cmp.b	#-1,	r15	;r3 As==11
    44fc:	73 27       	jz	$-280    	;abs 0x43e4
    44fe:	0b 93       	tst	r11		
    4500:	01 24       	jz	$+4      	;abs 0x4504
    4502:	32 d2       	eint			
    4504:	b0 12 98 5b 	call	#0x5b98	
    4508:	68 3f       	jmp	$-302    	;abs 0x43da

0000450a <__stop_progExec__>:
    450a:	32 d0 f0 00 	bis	#240,	r2	;#0x00f0
    450e:	fd 3f       	jmp	$-4      	;abs 0x450a

00004510 <__ctors_end>:
    4510:	30 40 a4 6c 	br	#0x6ca4	

00004514 <RandomMlcgC__Random__rand16>:
    4514:	0b 12       	push	r11		
    4516:	0a 12       	push	r10		
    4518:	09 12       	push	r9		
    451a:	08 12       	push	r8		
    451c:	07 12       	push	r7		
    451e:	06 12       	push	r6		
    4520:	3c 40 4e 83 	mov	#-31922,r12	;#0x834e
    4524:	0d 43       	clr	r13		
    4526:	1e 42 64 11 	mov	&0x1164,r14	
    452a:	1f 42 66 11 	mov	&0x1166,r15	
    452e:	b0 12 52 6a 	call	#0x6a52	
    4532:	07 4d       	mov	r13,	r7	
    4534:	08 4e       	mov	r14,	r8	
    4536:	09 4f       	mov	r15,	r9	
    4538:	0e 4c       	mov	r12,	r14	
    453a:	0f 47       	mov	r7,	r15	
    453c:	12 c3       	clrc			
    453e:	0f 10       	rrc	r15		
    4540:	0e 10       	rrc	r14		
    4542:	08 5e       	add	r14,	r8	
    4544:	09 6f       	addc	r15,	r9	
    4546:	09 93       	tst	r9		
    4548:	05 34       	jge	$+12     	;abs 0x4554
    454a:	38 f3       	and	#-1,	r8	;r3 As==11
    454c:	39 f0 ff 7f 	and	#32767,	r9	;#0x7fff
    4550:	18 53       	inc	r8		
    4552:	09 63       	adc	r9		
    4554:	82 48 64 11 	mov	r8,	&0x1164	
    4558:	82 49 66 11 	mov	r9,	&0x1166	
    455c:	0f 48       	mov	r8,	r15	
    455e:	36 41       	pop	r6		
    4560:	37 41       	pop	r7		
    4562:	38 41       	pop	r8		
    4564:	39 41       	pop	r9		
    4566:	3a 41       	pop	r10		
    4568:	3b 41       	pop	r11		
    456a:	30 41       	ret			

0000456c <CC2420SpiP__SpiByte__write>:
    456c:	c2 4f 77 00 	mov.b	r15,	&0x0077	
    4570:	5f 42 02 00 	mov.b	&0x0002,r15	
    4574:	3f f0 40 00 	and	#64,	r15	;#0x0040
    4578:	fb 27       	jz	$-8      	;abs 0x4570
    457a:	f2 f0 bf ff 02 00 	and.b	#-65,	&0x0002	;#0xffbf
    4580:	5f 42 76 00 	mov.b	&0x0076,r15	
    4584:	30 41       	ret			

00004586 <OneWireMasterC__BusyWait__wait>:
    4586:	1e 42 70 01 	mov	&0x0170,r14	
    458a:	3f 90 01 80 	cmp	#-32767,r15	;#0x8001
    458e:	0a 28       	jnc	$+22     	;abs 0x45a4
    4590:	3f 50 00 80 	add	#-32768,r15	;#0x8000
    4594:	1d 42 70 01 	mov	&0x0170,r13	
    4598:	0d 8e       	sub	r14,	r13	
    459a:	0f 9d       	cmp	r13,	r15	
    459c:	fb 2f       	jc	$-8      	;abs 0x4594
    459e:	0e 5f       	add	r15,	r14	
    45a0:	3f 40 00 80 	mov	#-32768,r15	;#0x8000
    45a4:	1d 42 70 01 	mov	&0x0170,r13	
    45a8:	0d 8e       	sub	r14,	r13	
    45aa:	0f 9d       	cmp	r13,	r15	
    45ac:	fb 2f       	jc	$-8      	;abs 0x45a4
    45ae:	30 41       	ret			

000045b0 <OneWireMasterC__Pin__makeInput>:
    45b0:	f2 f0 ef ff 2a 00 	and.b	#-17,	&0x002a	;#0xffef
    45b6:	30 41       	ret			

000045b8 <OneWireMasterC__Pin__makeOutput>:
    45b8:	f2 d0 10 00 2a 00 	bis.b	#16,	&0x002a	;#0x0010
    45be:	30 41       	ret			

000045c0 <Msp430TimerP__1__Timer__get>:
    45c0:	1f 42 90 01 	mov	&0x0190,r15	
    45c4:	01 3c       	jmp	$+4      	;abs 0x45c8
    45c6:	0f 4e       	mov	r14,	r15	
    45c8:	1e 42 90 01 	mov	&0x0190,r14	
    45cc:	0f 9e       	cmp	r14,	r15	
    45ce:	fb 23       	jnz	$-8      	;abs 0x45c6
    45d0:	30 41       	ret			

000045d2 <GpioCaptureC__0__enableCapture>:
    45d2:	b2 f0 ef ff 84 01 	and	#-17,	&0x0184	;#0xffef
    45d8:	e2 d3 1f 00 	bis.b	#2,	&0x001f	;r3 As==10
    45dc:	b2 f0 fe ff 84 01 	and	#-2,	&0x0184	;#0xfffe
    45e2:	b2 f0 fd ff 84 01 	and	#-3,	&0x0184	;#0xfffd
    45e8:	4f 4f       	mov.b	r15,	r15	
    45ea:	8f 10       	swpb	r15		
    45ec:	7e 40 06 00 	mov.b	#6,	r14	;#0x0006
    45f0:	0f 5f       	rla	r15		
    45f2:	7e 53       	add.b	#-1,	r14	;r3 As==11
    45f4:	fd 23       	jnz	$-4      	;abs 0x45f0
    45f6:	3f d0 00 01 	bis	#256,	r15	;#0x0100
    45fa:	82 4f 84 01 	mov	r15,	&0x0184	
    45fe:	b2 d0 10 00 84 01 	bis	#16,	&0x0184	;#0x0010
    4604:	0f 43       	clr	r15		
    4606:	30 41       	ret			

00004608 <MotePlatformC__TOSH_FLASH_M25P_DP_bit>:
    4608:	4f 93       	tst.b	r15		
    460a:	04 24       	jz	$+10     	;abs 0x4614
    460c:	5f 42 19 00 	mov.b	&0x0019,r15	
    4610:	6f d3       	bis.b	#2,	r15	;r3 As==10
    4612:	04 3c       	jmp	$+10     	;abs 0x461c
    4614:	5f 42 19 00 	mov.b	&0x0019,r15	
    4618:	7f f0 fd ff 	and.b	#-3,	r15	;#0xfffd
    461c:	c2 4f 19 00 	mov.b	r15,	&0x0019	
    4620:	f2 d2 19 00 	bis.b	#8,	&0x0019	;r2 As==11
    4624:	f2 f0 f7 ff 19 00 	and.b	#-9,	&0x0019	;#0xfff7
    462a:	30 41       	ret			

0000462c <CC2420PacketP__getNetwork>:
    462c:	5c 4f 02 00 	mov.b	2(r15),	r12	;0x0002(r15)
    4630:	8c 10       	swpb	r12		
    4632:	5e 4f 01 00 	mov.b	1(r15),	r14	;0x0001(r15)
    4636:	0c de       	bis	r14,	r12	
    4638:	0e 4c       	mov	r12,	r14	
    463a:	8e 10       	swpb	r14		
    463c:	4e 4e       	mov.b	r14,	r14	
    463e:	12 c3       	clrc			
    4640:	0e 10       	rrc	r14		
    4642:	12 c3       	clrc			
    4644:	0e 10       	rrc	r14		
    4646:	3e f0 03 00 	and	#3,	r14	;#0x0003
    464a:	5d 4e f8 6c 	mov.b	27896(r14),r13	;0x6cf8(r14)
    464e:	8d 11       	sxt	r13		
    4650:	0e 4c       	mov	r12,	r14	
    4652:	8e 10       	swpb	r14		
    4654:	4e 4e       	mov.b	r14,	r14	
    4656:	7c 40 06 00 	mov.b	#6,	r12	;#0x0006
    465a:	12 c3       	clrc			
    465c:	0e 10       	rrc	r14		
    465e:	7c 53       	add.b	#-1,	r12	;r3 As==11
    4660:	fc 23       	jnz	$-6      	;abs 0x465a
    4662:	5e 4e f8 6c 	mov.b	27896(r14),r14	;0x6cf8(r14)
    4666:	8e 11       	sxt	r14		
    4668:	0e 5d       	add	r13,	r14	
    466a:	3e 50 06 00 	add	#6,	r14	;#0x0006
    466e:	0f 5e       	add	r14,	r15	
    4670:	30 41       	ret			

00004672 <CC2420ReceiveP__reset_state>:
    4672:	f2 40 80 ff 3e 11 	mov.b	#-128,	&0x113e	;#0xff80
    4678:	c2 43 5c 11 	mov.b	#0,	&0x115c	;r3 As==00
    467c:	c2 43 50 12 	mov.b	#0,	&0x1250	;r3 As==00
    4680:	c2 43 4c 12 	mov.b	#0,	&0x124c	;r3 As==00
    4684:	c2 43 54 11 	mov.b	#0,	&0x1154	;r3 As==00
    4688:	30 41       	ret			

0000468a <DallasId48ToIeeeEui64C__LocalIeeeEui64__getId>:
    468a:	0b 12       	push	r11		
    468c:	0a 12       	push	r10		
    468e:	09 12       	push	r9		
    4690:	08 12       	push	r8		
    4692:	31 50 f2 ff 	add	#-14,	r1	;#0xfff2
    4696:	c2 93 18 11 	tst.b	&0x1118	
    469a:	81 20       	jnz	$+260    	;abs 0x479e
    469c:	b0 12 b0 45 	call	#0x45b0	
    46a0:	f2 f0 ef ff 29 00 	and.b	#-17,	&0x0029	;#0xffef
    46a6:	b0 12 b8 45 	call	#0x45b8	
    46aa:	3f 40 30 02 	mov	#560,	r15	;#0x0230
    46ae:	b0 12 86 45 	call	#0x4586	
    46b2:	b0 12 b0 45 	call	#0x45b0	
    46b6:	3f 40 3c 00 	mov	#60,	r15	;#0x003c
    46ba:	b0 12 86 45 	call	#0x4586	
    46be:	0b 43       	clr	r11		
    46c0:	f2 b0 10 00 28 00 	bit.b	#16,	&0x0028	;#0x0010
    46c6:	09 24       	jz	$+20     	;abs 0x46da
    46c8:	3b 50 05 00 	add	#5,	r11	;#0x0005
    46cc:	3f 40 05 00 	mov	#5,	r15	;#0x0005
    46d0:	b0 12 86 45 	call	#0x4586	
    46d4:	3b 90 f0 00 	cmp	#240,	r11	;#0x00f0
    46d8:	f3 23       	jnz	$-24     	;abs 0x46c0
    46da:	3f 40 a4 01 	mov	#420,	r15	;#0x01a4
    46de:	b0 12 86 45 	call	#0x4586	
    46e2:	3b 90 f0 00 	cmp	#240,	r11	;#0x00f0
    46e6:	5d 2c       	jc	$+188    	;abs 0x47a2
    46e8:	7a 42       	mov.b	#8,	r10	;r2 As==11
    46ea:	7b 40 33 00 	mov.b	#51,	r11	;#0x0033
    46ee:	1b b3       	bit	#1,	r11	;r3 As==01
    46f0:	0b 24       	jz	$+24     	;abs 0x4708
    46f2:	b0 12 b8 45 	call	#0x45b8	
    46f6:	3f 40 05 00 	mov	#5,	r15	;#0x0005
    46fa:	b0 12 86 45 	call	#0x4586	
    46fe:	b0 12 b0 45 	call	#0x45b0	
    4702:	3f 40 41 00 	mov	#65,	r15	;#0x0041
    4706:	0a 3c       	jmp	$+22     	;abs 0x471c
    4708:	b0 12 b8 45 	call	#0x45b8	
    470c:	3f 40 3c 00 	mov	#60,	r15	;#0x003c
    4710:	b0 12 86 45 	call	#0x4586	
    4714:	b0 12 b0 45 	call	#0x45b0	
    4718:	3f 40 05 00 	mov	#5,	r15	;#0x0005
    471c:	b0 12 86 45 	call	#0x4586	
    4720:	12 c3       	clrc			
    4722:	4b 10       	rrc.b	r11		
    4724:	7a 53       	add.b	#-1,	r10	;r3 As==11
    4726:	e3 23       	jnz	$-56     	;abs 0x46ee
    4728:	3a 40 de 11 	mov	#4574,	r10	;#0x11de
    472c:	79 42       	mov.b	#8,	r9	;r2 As==11
    472e:	4b 43       	clr.b	r11		
    4730:	12 c3       	clrc			
    4732:	4b 10       	rrc.b	r11		
    4734:	b0 12 b8 45 	call	#0x45b8	
    4738:	3f 40 05 00 	mov	#5,	r15	;#0x0005
    473c:	b0 12 86 45 	call	#0x4586	
    4740:	b0 12 b0 45 	call	#0x45b0	
    4744:	3f 40 05 00 	mov	#5,	r15	;#0x0005
    4748:	b0 12 86 45 	call	#0x4586	
    474c:	58 42 28 00 	mov.b	&0x0028,r8	
    4750:	3f 40 41 00 	mov	#65,	r15	;#0x0041
    4754:	b0 12 86 45 	call	#0x4586	
    4758:	78 b0 10 00 	bit.b	#16,	r8	;#0x0010
    475c:	02 24       	jz	$+6      	;abs 0x4762
    475e:	7b d0 80 ff 	bis.b	#-128,	r11	;#0xff80
    4762:	79 53       	add.b	#-1,	r9	;r3 As==11
    4764:	e5 23       	jnz	$-52     	;abs 0x4730
    4766:	ca 4b 00 00 	mov.b	r11,	0(r10)	;0x0000(r10)
    476a:	1a 53       	inc	r10		
    476c:	3a 90 e6 11 	cmp	#4582,	r10	;#0x11e6
    4770:	dd 23       	jnz	$-68     	;abs 0x472c
    4772:	0e 43       	clr	r14		
    4774:	4f 43       	clr.b	r15		
    4776:	5f ee de 11 	xor.b	4574(r14),r15	;0x11de(r14)
    477a:	7d 42       	mov.b	#8,	r13	;r2 As==11
    477c:	0c 4f       	mov	r15,	r12	
    477e:	1c f3       	and	#1,	r12	;r3 As==01
    4780:	12 c3       	clrc			
    4782:	4f 10       	rrc.b	r15		
    4784:	0c 93       	tst	r12		
    4786:	02 24       	jz	$+6      	;abs 0x478c
    4788:	7f e0 8c ff 	xor.b	#-116,	r15	;#0xff8c
    478c:	7d 53       	add.b	#-1,	r13	;r3 As==11
    478e:	f6 23       	jnz	$-18     	;abs 0x477c
    4790:	1e 53       	inc	r14		
    4792:	3e 92       	cmp	#8,	r14	;r2 As==11
    4794:	f0 23       	jnz	$-30     	;abs 0x4776
    4796:	4f 93       	tst.b	r15		
    4798:	06 20       	jnz	$+14     	;abs 0x47a6
    479a:	d2 43 18 11 	mov.b	#1,	&0x1118	;r3 As==01
    479e:	0e 43       	clr	r14		
    47a0:	04 3c       	jmp	$+10     	;abs 0x47aa
    47a2:	2e 42       	mov	#4,	r14	;r2 As==10
    47a4:	02 3c       	jmp	$+6      	;abs 0x47aa
    47a6:	3e 40 06 00 	mov	#6,	r14	;#0x0006
    47aa:	c2 93 18 11 	tst.b	&0x1118	
    47ae:	0a 24       	jz	$+22     	;abs 0x47c4
    47b0:	0f 43       	clr	r15		
    47b2:	0d 41       	mov	r1,	r13	
    47b4:	0d 5f       	add	r15,	r13	
    47b6:	dd 4f df 11 00 00 	mov.b	4575(r15),0(r13)	;0x11df(r15), 0x0000(r13)
    47bc:	1f 53       	inc	r15		
    47be:	3f 90 06 00 	cmp	#6,	r15	;#0x0006
    47c2:	f7 23       	jnz	$-16     	;abs 0x47b2
    47c4:	0e 93       	tst	r14		
    47c6:	08 24       	jz	$+18     	;abs 0x47d8
    47c8:	3d 42       	mov	#8,	r13	;r2 As==11
    47ca:	0e 43       	clr	r14		
    47cc:	0f 41       	mov	r1,	r15	
    47ce:	3f 50 06 00 	add	#6,	r15	;#0x0006
    47d2:	b0 12 3a 6c 	call	#0x6c3a	
    47d6:	16 3c       	jmp	$+46     	;abs 0x4804
    47d8:	c1 43 06 00 	mov.b	#0,	6(r1)	;r3 As==00, 0x0006(r1)
    47dc:	f1 40 12 00 07 00 	mov.b	#18,	7(r1)	;#0x0012, 0x0007(r1)
    47e2:	f1 40 6d 00 08 00 	mov.b	#109,	8(r1)	;#0x006d, 0x0008(r1)
    47e8:	f1 40 45 00 09 00 	mov.b	#69,	9(r1)	;#0x0045, 0x0009(r1)
    47ee:	f1 40 50 00 0a 00 	mov.b	#80,	10(r1)	;#0x0050, 0x000a(r1)
    47f4:	d1 41 02 00 0b 00 	mov.b	2(r1),	11(r1)	;0x0002(r1), 0x000b(r1)
    47fa:	d1 41 01 00 0c 00 	mov.b	1(r1),	12(r1)	;0x0001(r1), 0x000c(r1)
    4800:	e1 41 0d 00 	mov.b	@r1,	13(r1)	;0x000d(r1)
    4804:	1c 41 06 00 	mov	6(r1),	r12	;0x0006(r1)
    4808:	1d 41 08 00 	mov	8(r1),	r13	;0x0008(r1)
    480c:	1e 41 0a 00 	mov	10(r1),	r14	;0x000a(r1)
    4810:	1f 41 0c 00 	mov	12(r1),	r15	;0x000c(r1)
    4814:	31 50 0e 00 	add	#14,	r1	;#0x000e
    4818:	38 41       	pop	r8		
    481a:	39 41       	pop	r9		
    481c:	3a 41       	pop	r10		
    481e:	3b 41       	pop	r11		
    4820:	30 41       	ret			

00004822 <Msp430SpiNoDmaP__0__continueOp>:
    4822:	0b 12       	push	r11		
    4824:	0f 42       	mov	r2,	r15	
    4826:	3f f2       	and	#8,	r15	;r2 As==11
    4828:	32 c2       	dint			
    482a:	03 43       	nop			
    482c:	1d 42 6e 11 	mov	&0x116e,r13	
    4830:	1e 42 4e 12 	mov	&0x124e,r14	
    4834:	0d 93       	tst	r13		
    4836:	03 24       	jz	$+8      	;abs 0x483e
    4838:	0d 5e       	add	r14,	r13	
    483a:	6d 4d       	mov.b	@r13,	r13	
    483c:	01 3c       	jmp	$+4      	;abs 0x4840
    483e:	4d 43       	clr.b	r13		
    4840:	c2 4d 77 00 	mov.b	r13,	&0x0077	
    4844:	6e 53       	incd.b	r14		
    4846:	1d 42 52 12 	mov	&0x1252,r13	
    484a:	4c 4e       	mov.b	r14,	r12	
    484c:	0d 9c       	cmp	r12,	r13	
    484e:	1c 2c       	jc	$+58     	;abs 0x4888
    4850:	4e 4d       	mov.b	r13,	r14	
    4852:	1a 3c       	jmp	$+54     	;abs 0x4888
    4854:	5d 42 02 00 	mov.b	&0x0002,r13	
    4858:	3d f0 40 00 	and	#64,	r13	;#0x0040
    485c:	fb 27       	jz	$-8      	;abs 0x4854
    485e:	5b 42 76 00 	mov.b	&0x0076,r11	
    4862:	1d 42 d4 11 	mov	&0x11d4,r13	
    4866:	0d 93       	tst	r13		
    4868:	03 24       	jz	$+8      	;abs 0x4870
    486a:	0c 5d       	add	r13,	r12	
    486c:	cc 4b 00 00 	mov.b	r11,	0(r12)	;0x0000(r12)
    4870:	1d 42 6e 11 	mov	&0x116e,r13	
    4874:	0d 93       	tst	r13		
    4876:	04 24       	jz	$+10     	;abs 0x4880
    4878:	1d 52 4e 12 	add	&0x124e,r13	
    487c:	6d 4d       	mov.b	@r13,	r13	
    487e:	01 3c       	jmp	$+4      	;abs 0x4882
    4880:	4d 43       	clr.b	r13		
    4882:	c2 4d 77 00 	mov.b	r13,	&0x0077	
    4886:	01 3c       	jmp	$+4      	;abs 0x488a
    4888:	4e 4e       	mov.b	r14,	r14	
    488a:	1c 42 4e 12 	mov	&0x124e,r12	
    488e:	0d 4c       	mov	r12,	r13	
    4890:	1d 53       	inc	r13		
    4892:	82 4d 4e 12 	mov	r13,	&0x124e	
    4896:	0d 9e       	cmp	r14,	r13	
    4898:	dd 2b       	jnc	$-68     	;abs 0x4854
    489a:	0f 93       	tst	r15		
    489c:	01 24       	jz	$+4      	;abs 0x48a0
    489e:	32 d2       	eint			
    48a0:	3b 41       	pop	r11		
    48a2:	30 41       	ret			

000048a4 <CC2420SpiP__WorkingState__isIdle>:
    48a4:	0e 42       	mov	r2,	r14	
    48a6:	32 c2       	dint			
    48a8:	03 43       	nop			
    48aa:	5f 43       	mov.b	#1,	r15	;r3 As==01
    48ac:	c2 93 d8 11 	tst.b	&0x11d8	
    48b0:	01 24       	jz	$+4      	;abs 0x48b4
    48b2:	4f 43       	clr.b	r15		
    48b4:	3e f2       	and	#8,	r14	;r2 As==11
    48b6:	01 24       	jz	$+4      	;abs 0x48ba
    48b8:	32 d2       	eint			
    48ba:	30 41       	ret			

000048bc <CC2420SpiP__Strobe__strobe>:
    48bc:	0b 12       	push	r11		
    48be:	0a 12       	push	r10		
    48c0:	4a 4f       	mov.b	r15,	r10	
    48c2:	0b 42       	mov	r2,	r11	
    48c4:	3b f2       	and	#8,	r11	;r2 As==11
    48c6:	32 c2       	dint			
    48c8:	03 43       	nop			
    48ca:	b0 12 a4 48 	call	#0x48a4	
    48ce:	4f 93       	tst.b	r15		
    48d0:	04 24       	jz	$+10     	;abs 0x48da
    48d2:	0b 93       	tst	r11		
    48d4:	09 24       	jz	$+20     	;abs 0x48e8
    48d6:	32 d2       	eint			
    48d8:	07 3c       	jmp	$+16     	;abs 0x48e8
    48da:	0b 93       	tst	r11		
    48dc:	01 24       	jz	$+4      	;abs 0x48e0
    48de:	32 d2       	eint			
    48e0:	4f 4a       	mov.b	r10,	r15	
    48e2:	b0 12 6c 45 	call	#0x456c	
    48e6:	01 3c       	jmp	$+4      	;abs 0x48ea
    48e8:	4f 43       	clr.b	r15		
    48ea:	3a 41       	pop	r10		
    48ec:	3b 41       	pop	r11		
    48ee:	30 41       	ret			

000048f0 <CC2420CsmaP__SplitControlState__isState>:
    48f0:	4e 4f       	mov.b	r15,	r14	
    48f2:	0d 42       	mov	r2,	r13	
    48f4:	32 c2       	dint			
    48f6:	03 43       	nop			
    48f8:	5f 43       	mov.b	#1,	r15	;r3 As==01
    48fa:	5e 92 d9 11 	cmp.b	&0x11d9,r14	
    48fe:	01 24       	jz	$+4      	;abs 0x4902
    4900:	4f 43       	clr.b	r15		
    4902:	3d b2       	bit	#8,	r13	;r2 As==11
    4904:	01 24       	jz	$+4      	;abs 0x4908
    4906:	32 d2       	eint			
    4908:	30 41       	ret			

0000490a <Msp430GpioC__4__GeneralIO__clr>:
    490a:	0f 42       	mov	r2,	r15	
    490c:	32 c2       	dint			
    490e:	03 43       	nop			
    4910:	f2 f0 fb ff 1d 00 	and.b	#-5,	&0x001d	;#0xfffb
    4916:	3f f2       	and	#8,	r15	;r2 As==11
    4918:	01 24       	jz	$+4      	;abs 0x491c
    491a:	32 d2       	eint			
    491c:	30 41       	ret			

0000491e <SchedulerBasicP__TaskBasic__postTask>:
    491e:	0e 42       	mov	r2,	r14	
    4920:	3e f2       	and	#8,	r14	;r2 As==11
    4922:	32 c2       	dint			
    4924:	03 43       	nop			
    4926:	4d 4f       	mov.b	r15,	r13	
    4928:	fd 93 40 11 	cmp.b	#-1,	4416(r13);r3 As==11, 0x1140(r13)
    492c:	06 20       	jnz	$+14     	;abs 0x493a
    492e:	1d 43       	mov	#1,	r13	;r3 As==01
    4930:	c2 9f 5d 12 	cmp.b	r15,	&0x125d	
    4934:	03 24       	jz	$+8      	;abs 0x493c
    4936:	0d 43       	clr	r13		
    4938:	01 3c       	jmp	$+4      	;abs 0x493c
    493a:	1d 43       	mov	#1,	r13	;r3 As==01
    493c:	0d 93       	tst	r13		
    493e:	0e 20       	jnz	$+30     	;abs 0x495c
    4940:	f2 93 4d 12 	cmp.b	#-1,	&0x124d	;r3 As==11
    4944:	03 20       	jnz	$+8      	;abs 0x494c
    4946:	c2 4f 4d 12 	mov.b	r15,	&0x124d	
    494a:	04 3c       	jmp	$+10     	;abs 0x4954
    494c:	5d 42 5d 12 	mov.b	&0x125d,r13	
    4950:	cd 4f 40 11 	mov.b	r15,	4416(r13);0x1140(r13)
    4954:	c2 4f 5d 12 	mov.b	r15,	&0x125d	
    4958:	0f 43       	clr	r15		
    495a:	02 3c       	jmp	$+6      	;abs 0x4960
    495c:	3f 40 05 00 	mov	#5,	r15	;#0x0005
    4960:	0e 93       	tst	r14		
    4962:	01 24       	jz	$+4      	;abs 0x4966
    4964:	32 d2       	eint			
    4966:	30 41       	ret			

00004968 <CC2420SpiP__WorkingState__toIdle>:
    4968:	0f 42       	mov	r2,	r15	
    496a:	32 c2       	dint			
    496c:	03 43       	nop			
    496e:	c2 43 d8 11 	mov.b	#0,	&0x11d8	;r3 As==00
    4972:	3f f2       	and	#8,	r15	;r2 As==11
    4974:	01 24       	jz	$+4      	;abs 0x4978
    4976:	32 d2       	eint			
    4978:	30 41       	ret			

0000497a <UniqueSendP__State__toIdle>:
    497a:	0f 42       	mov	r2,	r15	
    497c:	32 c2       	dint			
    497e:	03 43       	nop			
    4980:	c2 43 da 11 	mov.b	#0,	&0x11da	;r3 As==00
    4984:	3f f2       	and	#8,	r15	;r2 As==11
    4986:	01 24       	jz	$+4      	;abs 0x498a
    4988:	32 d2       	eint			
    498a:	30 41       	ret			

0000498c <Msp430GpioC__4__GeneralIO__set>:
    498c:	0f 42       	mov	r2,	r15	
    498e:	32 c2       	dint			
    4990:	03 43       	nop			
    4992:	e2 d2 1d 00 	bis.b	#4,	&0x001d	;r2 As==10
    4996:	3f f2       	and	#8,	r15	;r2 As==11
    4998:	01 24       	jz	$+4      	;abs 0x499c
    499a:	32 d2       	eint			
    499c:	30 41       	ret			

0000499e <TransformAlarmC__0__Counter__get>:
    499e:	0b 12       	push	r11		
    49a0:	0a 12       	push	r10		
    49a2:	09 12       	push	r9		
    49a4:	0a 42       	mov	r2,	r10	
    49a6:	3a f2       	and	#8,	r10	;r2 As==11
    49a8:	32 c2       	dint			
    49aa:	03 43       	nop			
    49ac:	19 42 be 11 	mov	&0x11be,r9	
    49b0:	b0 12 c0 45 	call	#0x45c0	
    49b4:	0b 4f       	mov	r15,	r11	
    49b6:	1f 42 80 01 	mov	&0x0180,r15	
    49ba:	5f f3       	and.b	#1,	r15	;r3 As==01
    49bc:	04 24       	jz	$+10     	;abs 0x49c6
    49be:	19 53       	inc	r9		
    49c0:	b0 12 c0 45 	call	#0x45c0	
    49c4:	0b 4f       	mov	r15,	r11	
    49c6:	0c 43       	clr	r12		
    49c8:	0d 43       	clr	r13		
    49ca:	0d 49       	mov	r9,	r13	
    49cc:	0e 4b       	mov	r11,	r14	
    49ce:	0f 43       	clr	r15		
    49d0:	0e dc       	bis	r12,	r14	
    49d2:	0f dd       	bis	r13,	r15	
    49d4:	0a 93       	tst	r10		
    49d6:	01 24       	jz	$+4      	;abs 0x49da
    49d8:	32 d2       	eint			
    49da:	39 41       	pop	r9		
    49dc:	3a 41       	pop	r10		
    49de:	3b 41       	pop	r11		
    49e0:	30 41       	ret			

000049e2 <TransformAlarmC__0__set_alarm>:
    49e2:	0b 12       	push	r11		
    49e4:	0a 12       	push	r10		
    49e6:	09 12       	push	r9		
    49e8:	08 12       	push	r8		
    49ea:	b0 12 9e 49 	call	#0x499e	
    49ee:	08 4e       	mov	r14,	r8	
    49f0:	09 4f       	mov	r15,	r9	
    49f2:	1e 42 76 11 	mov	&0x1176,r14	
    49f6:	1f 42 78 11 	mov	&0x1178,r15	
    49fa:	0a 4e       	mov	r14,	r10	
    49fc:	0b 4f       	mov	r15,	r11	
    49fe:	1a 52 70 11 	add	&0x1170,r10	
    4a02:	1b 62 72 11 	addc	&0x1172,r11	
    4a06:	09 9f       	cmp	r15,	r9	
    4a08:	09 28       	jnc	$+20     	;abs 0x4a1c
    4a0a:	02 20       	jnz	$+6      	;abs 0x4a10
    4a0c:	08 9e       	cmp	r14,	r8	
    4a0e:	06 28       	jnc	$+14     	;abs 0x4a1c
    4a10:	0b 9f       	cmp	r15,	r11	
    4a12:	10 28       	jnc	$+34     	;abs 0x4a34
    4a14:	09 20       	jnz	$+20     	;abs 0x4a28
    4a16:	0a 9e       	cmp	r14,	r10	
    4a18:	0d 28       	jnc	$+28     	;abs 0x4a34
    4a1a:	06 3c       	jmp	$+14     	;abs 0x4a28
    4a1c:	0b 9f       	cmp	r15,	r11	
    4a1e:	04 28       	jnc	$+10     	;abs 0x4a28
    4a20:	0f 9b       	cmp	r11,	r15	
    4a22:	27 28       	jnc	$+80     	;abs 0x4a72
    4a24:	0a 9e       	cmp	r14,	r10	
    4a26:	25 2c       	jc	$+76     	;abs 0x4a72
    4a28:	09 9b       	cmp	r11,	r9	
    4a2a:	04 28       	jnc	$+10     	;abs 0x4a34
    4a2c:	0b 99       	cmp	r9,	r11	
    4a2e:	21 28       	jnc	$+68     	;abs 0x4a72
    4a30:	08 9a       	cmp	r10,	r8	
    4a32:	1f 2c       	jc	$+64     	;abs 0x4a72
    4a34:	0c 4a       	mov	r10,	r12	
    4a36:	0d 4b       	mov	r11,	r13	
    4a38:	0c 88       	sub	r8,	r12	
    4a3a:	0d 79       	subc	r9,	r13	
    4a3c:	0d 93       	tst	r13		
    4a3e:	03 20       	jnz	$+8      	;abs 0x4a46
    4a40:	3c 90 01 80 	cmp	#-32767,r12	;#0x8001
    4a44:	18 28       	jnc	$+50     	;abs 0x4a76
    4a46:	0e 48       	mov	r8,	r14	
    4a48:	0f 49       	mov	r9,	r15	
    4a4a:	3e 50 00 80 	add	#-32768,r14	;#0x8000
    4a4e:	0f 63       	adc	r15		
    4a50:	82 4e 76 11 	mov	r14,	&0x1176	
    4a54:	82 4f 78 11 	mov	r15,	&0x1178	
    4a58:	0e 4c       	mov	r12,	r14	
    4a5a:	0f 4d       	mov	r13,	r15	
    4a5c:	3e 50 00 80 	add	#-32768,r14	;#0x8000
    4a60:	3f 63       	addc	#-1,	r15	;r3 As==11
    4a62:	82 4e 70 11 	mov	r14,	&0x1170	
    4a66:	82 4f 72 11 	mov	r15,	&0x1172	
    4a6a:	3c 40 00 80 	mov	#-32768,r12	;#0x8000
    4a6e:	0d 43       	clr	r13		
    4a70:	0a 3c       	jmp	$+22     	;abs 0x4a86
    4a72:	0c 43       	clr	r12		
    4a74:	0d 43       	clr	r13		
    4a76:	82 4a 76 11 	mov	r10,	&0x1176	
    4a7a:	82 4b 78 11 	mov	r11,	&0x1178	
    4a7e:	82 43 70 11 	mov	#0,	&0x1170	;r3 As==00
    4a82:	82 43 72 11 	mov	#0,	&0x1172	;r3 As==00
    4a86:	0a 4c       	mov	r12,	r10	
    4a88:	b0 12 c0 45 	call	#0x45c0	
    4a8c:	0e 4f       	mov	r15,	r14	
    4a8e:	0e 88       	sub	r8,	r14	
    4a90:	0e 9a       	cmp	r10,	r14	
    4a92:	05 2c       	jc	$+12     	;abs 0x4a9e
    4a94:	0c 4a       	mov	r10,	r12	
    4a96:	0c 8e       	sub	r14,	r12	
    4a98:	3c 90 03 00 	cmp	#3,	r12	;#0x0003
    4a9c:	06 2c       	jc	$+14     	;abs 0x4aaa
    4a9e:	b0 12 c0 45 	call	#0x45c0	
    4aa2:	2f 53       	incd	r15		
    4aa4:	82 4f 92 01 	mov	r15,	&0x0192	
    4aa8:	03 3c       	jmp	$+8      	;abs 0x4ab0
    4aaa:	0c 5f       	add	r15,	r12	
    4aac:	82 4c 92 01 	mov	r12,	&0x0192	
    4ab0:	b2 f0 fe ff 82 01 	and	#-2,	&0x0182	;#0xfffe
    4ab6:	b2 d0 10 00 82 01 	bis	#16,	&0x0182	;#0x0010
    4abc:	38 41       	pop	r8		
    4abe:	39 41       	pop	r9		
    4ac0:	3a 41       	pop	r10		
    4ac2:	3b 41       	pop	r11		
    4ac4:	30 41       	ret			

00004ac6 <TransformAlarmC__0__Alarm__start>:
    4ac6:	0b 12       	push	r11		
    4ac8:	0a 12       	push	r10		
    4aca:	09 12       	push	r9		
    4acc:	0a 4e       	mov	r14,	r10	
    4ace:	0b 4f       	mov	r15,	r11	
    4ad0:	b0 12 9e 49 	call	#0x499e	
    4ad4:	09 42       	mov	r2,	r9	
    4ad6:	32 c2       	dint			
    4ad8:	03 43       	nop			
    4ada:	82 4e 76 11 	mov	r14,	&0x1176	
    4ade:	82 4f 78 11 	mov	r15,	&0x1178	
    4ae2:	82 4a 70 11 	mov	r10,	&0x1170	
    4ae6:	82 4b 72 11 	mov	r11,	&0x1172	
    4aea:	b0 12 e2 49 	call	#0x49e2	
    4aee:	39 b2       	bit	#8,	r9	;r2 As==11
    4af0:	01 24       	jz	$+4      	;abs 0x4af4
    4af2:	32 d2       	eint			
    4af4:	39 41       	pop	r9		
    4af6:	3a 41       	pop	r10		
    4af8:	3b 41       	pop	r11		
    4afa:	30 41       	ret			

00004afc <CC2420TransmitP__congestionBackoff>:
    4afc:	0b 12       	push	r11		
    4afe:	0b 42       	mov	r2,	r11	
    4b00:	32 c2       	dint			
    4b02:	03 43       	nop			
    4b04:	b0 12 14 45 	call	#0x4514	
    4b08:	3e 40 46 00 	mov	#70,	r14	;#0x0046
    4b0c:	b0 12 18 6b 	call	#0x6b18	
    4b10:	0e 4f       	mov	r15,	r14	
    4b12:	3e 50 0b 00 	add	#11,	r14	;#0x000b
    4b16:	82 4e 5a 12 	mov	r14,	&0x125a	
    4b1a:	0f 43       	clr	r15		
    4b1c:	b0 12 c6 4a 	call	#0x4ac6	
    4b20:	3b b2       	bit	#8,	r11	;r2 As==11
    4b22:	01 24       	jz	$+4      	;abs 0x4b26
    4b24:	32 d2       	eint			
    4b26:	3b 41       	pop	r11		
    4b28:	30 41       	ret			

00004b2a <LedsP__Led0__set>:
    4b2a:	0f 42       	mov	r2,	r15	
    4b2c:	32 c2       	dint			
    4b2e:	03 43       	nop			
    4b30:	f2 d0 10 00 31 00 	bis.b	#16,	&0x0031	;#0x0010
    4b36:	3f f2       	and	#8,	r15	;r2 As==11
    4b38:	01 24       	jz	$+4      	;abs 0x4b3c
    4b3a:	32 d2       	eint			
    4b3c:	30 41       	ret			

00004b3e <LedsP__Led1__set>:
    4b3e:	0f 42       	mov	r2,	r15	
    4b40:	32 c2       	dint			
    4b42:	03 43       	nop			
    4b44:	f2 d0 20 00 31 00 	bis.b	#32,	&0x0031	;#0x0020
    4b4a:	3f f2       	and	#8,	r15	;r2 As==11
    4b4c:	01 24       	jz	$+4      	;abs 0x4b50
    4b4e:	32 d2       	eint			
    4b50:	30 41       	ret			

00004b52 <LedsP__Led2__set>:
    4b52:	0f 42       	mov	r2,	r15	
    4b54:	32 c2       	dint			
    4b56:	03 43       	nop			
    4b58:	f2 d0 40 00 31 00 	bis.b	#64,	&0x0031	;#0x0040
    4b5e:	3f f2       	and	#8,	r15	;r2 As==11
    4b60:	01 24       	jz	$+4      	;abs 0x4b64
    4b62:	32 d2       	eint			
    4b64:	30 41       	ret			

00004b66 <CC2420CsmaP__SplitControlState__forceState>:
    4b66:	0e 42       	mov	r2,	r14	
    4b68:	32 c2       	dint			
    4b6a:	03 43       	nop			
    4b6c:	c2 4f d9 11 	mov.b	r15,	&0x11d9	
    4b70:	3e f2       	and	#8,	r14	;r2 As==11
    4b72:	01 24       	jz	$+4      	;abs 0x4b76
    4b74:	32 d2       	eint			
    4b76:	30 41       	ret			

00004b78 <TransformAlarmC__1__Counter__get>:
    4b78:	0b 12       	push	r11		
    4b7a:	0a 12       	push	r10		
    4b7c:	09 12       	push	r9		
    4b7e:	09 42       	mov	r2,	r9	
    4b80:	39 f2       	and	#8,	r9	;r2 As==11
    4b82:	32 c2       	dint			
    4b84:	03 43       	nop			
    4b86:	1a 42 6a 11 	mov	&0x116a,r10	
    4b8a:	1b 42 6c 11 	mov	&0x116c,r11	
    4b8e:	b0 12 c0 45 	call	#0x45c0	
    4b92:	1e 42 80 01 	mov	&0x0180,r14	
    4b96:	5e f3       	and.b	#1,	r14	;r3 As==01
    4b98:	04 24       	jz	$+10     	;abs 0x4ba2
    4b9a:	1a 53       	inc	r10		
    4b9c:	0b 63       	adc	r11		
    4b9e:	b0 12 c0 45 	call	#0x45c0	
    4ba2:	12 c3       	clrc			
    4ba4:	0f 10       	rrc	r15		
    4ba6:	12 c3       	clrc			
    4ba8:	0f 10       	rrc	r15		
    4baa:	12 c3       	clrc			
    4bac:	0f 10       	rrc	r15		
    4bae:	12 c3       	clrc			
    4bb0:	0f 10       	rrc	r15		
    4bb2:	12 c3       	clrc			
    4bb4:	0f 10       	rrc	r15		
    4bb6:	0c 4f       	mov	r15,	r12	
    4bb8:	0d 43       	clr	r13		
    4bba:	0e 4a       	mov	r10,	r14	
    4bbc:	0f 4b       	mov	r11,	r15	
    4bbe:	4f ea       	xor.b	r10,	r15	
    4bc0:	0f ea       	xor	r10,	r15	
    4bc2:	8f 10       	swpb	r15		
    4bc4:	4e 4e       	mov.b	r14,	r14	
    4bc6:	8e 10       	swpb	r14		
    4bc8:	0e 5e       	rla	r14		
    4bca:	0f 6f       	rlc	r15		
    4bcc:	0e 5e       	rla	r14		
    4bce:	0f 6f       	rlc	r15		
    4bd0:	0e 5e       	rla	r14		
    4bd2:	0f 6f       	rlc	r15		
    4bd4:	0e dc       	bis	r12,	r14	
    4bd6:	0f dd       	bis	r13,	r15	
    4bd8:	09 93       	tst	r9		
    4bda:	01 24       	jz	$+4      	;abs 0x4bde
    4bdc:	32 d2       	eint			
    4bde:	39 41       	pop	r9		
    4be0:	3a 41       	pop	r10		
    4be2:	3b 41       	pop	r11		
    4be4:	30 41       	ret			

00004be6 <TransformAlarmC__1__set_alarm>:
    4be6:	0b 12       	push	r11		
    4be8:	0a 12       	push	r10		
    4bea:	09 12       	push	r9		
    4bec:	08 12       	push	r8		
    4bee:	b0 12 78 4b 	call	#0x4b78	
    4bf2:	08 4e       	mov	r14,	r8	
    4bf4:	09 4f       	mov	r15,	r9	
    4bf6:	1e 42 26 11 	mov	&0x1126,r14	
    4bfa:	1f 42 28 11 	mov	&0x1128,r15	
    4bfe:	0a 4e       	mov	r14,	r10	
    4c00:	0b 4f       	mov	r15,	r11	
    4c02:	1a 52 56 11 	add	&0x1156,r10	
    4c06:	1b 62 58 11 	addc	&0x1158,r11	
    4c0a:	09 9f       	cmp	r15,	r9	
    4c0c:	09 28       	jnc	$+20     	;abs 0x4c20
    4c0e:	02 20       	jnz	$+6      	;abs 0x4c14
    4c10:	08 9e       	cmp	r14,	r8	
    4c12:	06 28       	jnc	$+14     	;abs 0x4c20
    4c14:	0b 9f       	cmp	r15,	r11	
    4c16:	10 28       	jnc	$+34     	;abs 0x4c38
    4c18:	09 20       	jnz	$+20     	;abs 0x4c2c
    4c1a:	0a 9e       	cmp	r14,	r10	
    4c1c:	0d 28       	jnc	$+28     	;abs 0x4c38
    4c1e:	06 3c       	jmp	$+14     	;abs 0x4c2c
    4c20:	0b 9f       	cmp	r15,	r11	
    4c22:	04 28       	jnc	$+10     	;abs 0x4c2c
    4c24:	0f 9b       	cmp	r11,	r15	
    4c26:	27 28       	jnc	$+80     	;abs 0x4c76
    4c28:	0a 9e       	cmp	r14,	r10	
    4c2a:	25 2c       	jc	$+76     	;abs 0x4c76
    4c2c:	09 9b       	cmp	r11,	r9	
    4c2e:	04 28       	jnc	$+10     	;abs 0x4c38
    4c30:	0b 99       	cmp	r9,	r11	
    4c32:	21 28       	jnc	$+68     	;abs 0x4c76
    4c34:	08 9a       	cmp	r10,	r8	
    4c36:	1f 2c       	jc	$+64     	;abs 0x4c76
    4c38:	0c 4a       	mov	r10,	r12	
    4c3a:	0d 4b       	mov	r11,	r13	
    4c3c:	0c 88       	sub	r8,	r12	
    4c3e:	0d 79       	subc	r9,	r13	
    4c40:	0d 93       	tst	r13		
    4c42:	03 20       	jnz	$+8      	;abs 0x4c4a
    4c44:	3c 90 01 04 	cmp	#1025,	r12	;#0x0401
    4c48:	18 28       	jnc	$+50     	;abs 0x4c7a
    4c4a:	0e 48       	mov	r8,	r14	
    4c4c:	0f 49       	mov	r9,	r15	
    4c4e:	3e 50 00 04 	add	#1024,	r14	;#0x0400
    4c52:	0f 63       	adc	r15		
    4c54:	82 4e 26 11 	mov	r14,	&0x1126	
    4c58:	82 4f 28 11 	mov	r15,	&0x1128	
    4c5c:	0e 4c       	mov	r12,	r14	
    4c5e:	0f 4d       	mov	r13,	r15	
    4c60:	3e 50 00 fc 	add	#-1024,	r14	;#0xfc00
    4c64:	3f 63       	addc	#-1,	r15	;r3 As==11
    4c66:	82 4e 56 11 	mov	r14,	&0x1156	
    4c6a:	82 4f 58 11 	mov	r15,	&0x1158	
    4c6e:	3c 40 00 04 	mov	#1024,	r12	;#0x0400
    4c72:	0d 43       	clr	r13		
    4c74:	0a 3c       	jmp	$+22     	;abs 0x4c8a
    4c76:	0c 43       	clr	r12		
    4c78:	0d 43       	clr	r13		
    4c7a:	82 4a 26 11 	mov	r10,	&0x1126	
    4c7e:	82 4b 28 11 	mov	r11,	&0x1128	
    4c82:	82 43 56 11 	mov	#0,	&0x1156	;r3 As==00
    4c86:	82 43 58 11 	mov	#0,	&0x1158	;r3 As==00
    4c8a:	0a 4c       	mov	r12,	r10	
    4c8c:	0a 5a       	rla	r10		
    4c8e:	0a 5a       	rla	r10		
    4c90:	0a 5a       	rla	r10		
    4c92:	0a 5a       	rla	r10		
    4c94:	0a 5a       	rla	r10		
    4c96:	b0 12 c0 45 	call	#0x45c0	
    4c9a:	08 58       	rla	r8		
    4c9c:	08 58       	rla	r8		
    4c9e:	08 58       	rla	r8		
    4ca0:	08 58       	rla	r8		
    4ca2:	08 58       	rla	r8		
    4ca4:	0e 4f       	mov	r15,	r14	
    4ca6:	0e 88       	sub	r8,	r14	
    4ca8:	0e 9a       	cmp	r10,	r14	
    4caa:	04 2c       	jc	$+10     	;abs 0x4cb4
    4cac:	0a 8e       	sub	r14,	r10	
    4cae:	3a 90 03 00 	cmp	#3,	r10	;#0x0003
    4cb2:	06 2c       	jc	$+14     	;abs 0x4cc0
    4cb4:	b0 12 c0 45 	call	#0x45c0	
    4cb8:	2f 53       	incd	r15		
    4cba:	82 4f 96 01 	mov	r15,	&0x0196	
    4cbe:	03 3c       	jmp	$+8      	;abs 0x4cc6
    4cc0:	0a 5f       	add	r15,	r10	
    4cc2:	82 4a 96 01 	mov	r10,	&0x0196	
    4cc6:	b2 f0 fe ff 86 01 	and	#-2,	&0x0186	;#0xfffe
    4ccc:	b2 d0 10 00 86 01 	bis	#16,	&0x0186	;#0x0010
    4cd2:	38 41       	pop	r8		
    4cd4:	39 41       	pop	r9		
    4cd6:	3a 41       	pop	r10		
    4cd8:	3b 41       	pop	r11		
    4cda:	30 41       	ret			

00004cdc <CC2420ControlP__RSTN__clr>:
    4cdc:	0f 42       	mov	r2,	r15	
    4cde:	32 c2       	dint			
    4ce0:	03 43       	nop			
    4ce2:	f2 f0 bf ff 1d 00 	and.b	#-65,	&0x001d	;#0xffbf
    4ce8:	3f f2       	and	#8,	r15	;r2 As==11
    4cea:	01 24       	jz	$+4      	;abs 0x4cee
    4cec:	32 d2       	eint			
    4cee:	30 41       	ret			

00004cf0 <CC2420ControlP__RSTN__set>:
    4cf0:	0f 42       	mov	r2,	r15	
    4cf2:	32 c2       	dint			
    4cf4:	03 43       	nop			
    4cf6:	f2 d0 40 00 1d 00 	bis.b	#64,	&0x001d	;#0x0040
    4cfc:	3f f2       	and	#8,	r15	;r2 As==11
    4cfe:	01 24       	jz	$+4      	;abs 0x4d02
    4d00:	32 d2       	eint			
    4d02:	30 41       	ret			

00004d04 <HplMsp430Usart0P__Usart__resetUsart>:
    4d04:	4f 93       	tst.b	r15		
    4d06:	03 24       	jz	$+8      	;abs 0x4d0e
    4d08:	d2 43 70 00 	mov.b	#1,	&0x0070	;r3 As==01
    4d0c:	30 41       	ret			
    4d0e:	f2 f0 fe ff 70 00 	and.b	#-2,	&0x0070	;#0xfffe
    4d14:	30 41       	ret			

00004d16 <SchedulerBasicP__popTask.part.79>:
    4d16:	5f 42 4d 12 	mov.b	&0x124d,r15	
    4d1a:	4e 4f       	mov.b	r15,	r14	
    4d1c:	3e 50 40 11 	add	#4416,	r14	;#0x1140
    4d20:	6d 4e       	mov.b	@r14,	r13	
    4d22:	c2 4d 4d 12 	mov.b	r13,	&0x124d	
    4d26:	7d 93       	cmp.b	#-1,	r13	;r3 As==11
    4d28:	02 20       	jnz	$+6      	;abs 0x4d2e
    4d2a:	f2 43 5d 12 	mov.b	#-1,	&0x125d	;r3 As==11
    4d2e:	fe 43 00 00 	mov.b	#-1,	0(r14)	;r3 As==11, 0x0000(r14)
    4d32:	30 41       	ret			

00004d34 <Msp430TimerP__0__Event__fired>:
    4d34:	5f 93       	cmp.b	#1,	r15	;r3 As==01
    4d36:	0c 24       	jz	$+26     	;abs 0x4d50
    4d38:	03 28       	jnc	$+8      	;abs 0x4d40
    4d3a:	6f 93       	cmp.b	#2,	r15	;r3 As==10
    4d3c:	18 20       	jnz	$+50     	;abs 0x4d6e
    4d3e:	10 3c       	jmp	$+34     	;abs 0x4d60
    4d40:	1f 42 62 01 	mov	&0x0162,r15	
    4d44:	8f 10       	swpb	r15		
    4d46:	5f f3       	and.b	#1,	r15	;r3 As==01
    4d48:	12 24       	jz	$+38     	;abs 0x4d6e
    4d4a:	1f 42 72 01 	mov	&0x0172,r15	
    4d4e:	30 41       	ret			
    4d50:	1f 42 64 01 	mov	&0x0164,r15	
    4d54:	8f 10       	swpb	r15		
    4d56:	5f f3       	and.b	#1,	r15	;r3 As==01
    4d58:	0a 24       	jz	$+22     	;abs 0x4d6e
    4d5a:	1f 42 74 01 	mov	&0x0174,r15	
    4d5e:	30 41       	ret			
    4d60:	1f 42 66 01 	mov	&0x0166,r15	
    4d64:	8f 10       	swpb	r15		
    4d66:	5f f3       	and.b	#1,	r15	;r3 As==01
    4d68:	02 24       	jz	$+6      	;abs 0x4d6e
    4d6a:	1f 42 76 01 	mov	&0x0176,r15	
    4d6e:	30 41       	ret			

00004d70 <ArbiterP__0__Queue__dequeue.part.91>:
    4d70:	5f 42 09 11 	mov.b	&0x1109,r15	
    4d74:	4e 4f       	mov.b	r15,	r14	
    4d76:	5d 4e 74 11 	mov.b	4468(r14),r13	;0x1174(r14)
    4d7a:	c2 4d 09 11 	mov.b	r13,	&0x1109	
    4d7e:	7d 93       	cmp.b	#-1,	r13	;r3 As==11
    4d80:	02 20       	jnz	$+6      	;abs 0x4d86
    4d82:	f2 43 08 11 	mov.b	#-1,	&0x1108	;r3 As==11
    4d86:	fe 43 74 11 	mov.b	#-1,	4468(r14);r3 As==11, 0x1174(r14)
    4d8a:	30 41       	ret			

00004d8c <ArbiterP__0__ResourceConfigure__unconfigure.part.93>:
    4d8c:	5f 43       	mov.b	#1,	r15	;r3 As==01
    4d8e:	b0 12 04 4d 	call	#0x4d04	
    4d92:	f2 f0 bf ff 04 00 	and.b	#-65,	&0x0004	;#0xffbf
    4d98:	3f 40 1b 00 	mov	#27,	r15	;#0x001b
    4d9c:	ff f0 fd ff 00 00 	and.b	#-3,	0(r15)	;#0xfffd, 0x0000(r15)
    4da2:	ff f0 fb ff 00 00 	and.b	#-5,	0(r15)	;#0xfffb, 0x0000(r15)
    4da8:	ff f0 f7 ff 00 00 	and.b	#-9,	0(r15)	;#0xfff7, 0x0000(r15)
    4dae:	30 41       	ret			

00004db0 <CC2420SpiP__SpiPacket__send.part.95>:
    4db0:	0f 42       	mov	r2,	r15	
    4db2:	32 c2       	dint			
    4db4:	03 43       	nop			
    4db6:	f2 f0 bf ff 02 00 	and.b	#-65,	&0x0002	;#0xffbf
    4dbc:	f2 d0 40 00 00 00 	bis.b	#64,	&0x0000	;#0x0040
    4dc2:	3f f2       	and	#8,	r15	;r2 As==11
    4dc4:	01 24       	jz	$+4      	;abs 0x4dc8
    4dc6:	32 d2       	eint			
    4dc8:	b0 12 22 48 	call	#0x4822	
    4dcc:	30 41       	ret			

00004dce <CC2420ReceiveP__RXFIFO__beginRead>:
    4dce:	0b 12       	push	r11		
    4dd0:	0a 12       	push	r10		
    4dd2:	09 12       	push	r9		
    4dd4:	0a 4f       	mov	r15,	r10	
    4dd6:	49 4e       	mov.b	r14,	r9	
    4dd8:	0b 42       	mov	r2,	r11	
    4dda:	3b f2       	and	#8,	r11	;r2 As==11
    4ddc:	32 c2       	dint			
    4dde:	03 43       	nop			
    4de0:	b0 12 a4 48 	call	#0x48a4	
    4de4:	4f 93       	tst.b	r15		
    4de6:	04 24       	jz	$+10     	;abs 0x4df0
    4de8:	0b 93       	tst	r11		
    4dea:	21 24       	jz	$+68     	;abs 0x4e2e
    4dec:	32 d2       	eint			
    4dee:	1f 3c       	jmp	$+64     	;abs 0x4e2e
    4df0:	0b 93       	tst	r11		
    4df2:	01 24       	jz	$+4      	;abs 0x4df6
    4df4:	32 d2       	eint			
    4df6:	b2 40 7f 00 7e 11 	mov	#127,	&0x117e	;#0x007f
    4dfc:	7f 40 7f 00 	mov.b	#127,	r15	;#0x007f
    4e00:	b0 12 6c 45 	call	#0x456c	
    4e04:	4b 4f       	mov.b	r15,	r11	
    4e06:	4e 49       	mov.b	r9,	r14	
    4e08:	c2 43 7c 11 	mov.b	#0,	&0x117c	;r3 As==00
    4e0c:	82 43 6e 11 	mov	#0,	&0x116e	;r3 As==00
    4e10:	82 4a d4 11 	mov	r10,	&0x11d4	
    4e14:	82 4e 52 12 	mov	r14,	&0x1252	
    4e18:	82 43 4e 12 	mov	#0,	&0x124e	;r3 As==00
    4e1c:	0e 93       	tst	r14		
    4e1e:	03 24       	jz	$+8      	;abs 0x4e26
    4e20:	b0 12 b0 4d 	call	#0x4db0	
    4e24:	05 3c       	jmp	$+12     	;abs 0x4e30
    4e26:	7f 42       	mov.b	#8,	r15	;r2 As==11
    4e28:	b0 12 1e 49 	call	#0x491e	
    4e2c:	01 3c       	jmp	$+4      	;abs 0x4e30
    4e2e:	4b 43       	clr.b	r11		
    4e30:	4f 4b       	mov.b	r11,	r15	
    4e32:	39 41       	pop	r9		
    4e34:	3a 41       	pop	r10		
    4e36:	3b 41       	pop	r11		
    4e38:	30 41       	ret			

00004e3a <CC2420ReceiveP__receive>:
    4e3a:	b0 12 0a 49 	call	#0x490a	
    4e3e:	5e 43       	mov.b	#1,	r14	;r3 As==01
    4e40:	1f 42 24 11 	mov	&0x1124,r15	
    4e44:	b0 12 ce 4d 	call	#0x4dce	
    4e48:	30 41       	ret			

00004e4a <CC2420ReceiveP__RXFIFO__continueRead>:
    4e4a:	4e 4e       	mov.b	r14,	r14	
    4e4c:	c2 43 7c 11 	mov.b	#0,	&0x117c	;r3 As==00
    4e50:	82 43 6e 11 	mov	#0,	&0x116e	;r3 As==00
    4e54:	82 4f d4 11 	mov	r15,	&0x11d4	
    4e58:	82 4e 52 12 	mov	r14,	&0x1252	
    4e5c:	82 43 4e 12 	mov	#0,	&0x124e	;r3 As==00
    4e60:	0e 93       	tst	r14		
    4e62:	03 24       	jz	$+8      	;abs 0x4e6a
    4e64:	b0 12 b0 4d 	call	#0x4db0	
    4e68:	03 3c       	jmp	$+8      	;abs 0x4e70
    4e6a:	7f 42       	mov.b	#8,	r15	;r2 As==11
    4e6c:	b0 12 1e 49 	call	#0x491e	
    4e70:	0f 43       	clr	r15		
    4e72:	30 41       	ret			

00004e74 <CC2420SpiP__attemptRelease>:
    4e74:	c2 93 1a 11 	tst.b	&0x111a	
    4e78:	2e 20       	jnz	$+94     	;abs 0x4ed6
    4e7a:	f2 93 0a 11 	cmp.b	#-1,	&0x110a	;r3 As==11
    4e7e:	2b 20       	jnz	$+88     	;abs 0x4ed6
    4e80:	b0 12 a4 48 	call	#0x48a4	
    4e84:	4f 93       	tst.b	r15		
    4e86:	27 24       	jz	$+80     	;abs 0x4ed6
    4e88:	d2 43 f1 11 	mov.b	#1,	&0x11f1	;r3 As==01
    4e8c:	c2 93 3f 11 	tst.b	&0x113f	
    4e90:	02 24       	jz	$+6      	;abs 0x4e96
    4e92:	c2 43 f1 11 	mov.b	#0,	&0x11f1	;r3 As==00
    4e96:	c2 93 f1 11 	tst.b	&0x11f1	
    4e9a:	1f 24       	jz	$+64     	;abs 0x4eda
    4e9c:	e2 92 5d 11 	cmp.b	#4,	&0x115d	;r2 As==10
    4ea0:	1f 20       	jnz	$+64     	;abs 0x4ee0
    4ea2:	c2 93 07 11 	tst.b	&0x1107	
    4ea6:	1e 20       	jnz	$+62     	;abs 0x4ee4
    4ea8:	f2 93 09 11 	cmp.b	#-1,	&0x1109	;r3 As==11
    4eac:	05 20       	jnz	$+12     	;abs 0x4eb8
    4eae:	d2 43 07 11 	mov.b	#1,	&0x1107	;r3 As==01
    4eb2:	c2 43 5d 11 	mov.b	#0,	&0x115d	;r3 As==00
    4eb6:	0c 3c       	jmp	$+26     	;abs 0x4ed0
    4eb8:	b0 12 70 4d 	call	#0x4d70	
    4ebc:	c2 4f 06 11 	mov.b	r15,	&0x1106	
    4ec0:	f2 43 07 11 	mov.b	#-1,	&0x1107	;r3 As==11
    4ec4:	e2 43 5d 11 	mov.b	#2,	&0x115d	;r3 As==10
    4ec8:	7f 40 09 00 	mov.b	#9,	r15	;#0x0009
    4ecc:	b0 12 1e 49 	call	#0x491e	
    4ed0:	b0 12 8c 4d 	call	#0x4d8c	
    4ed4:	05 3c       	jmp	$+12     	;abs 0x4ee0
    4ed6:	1f 43       	mov	#1,	r15	;r3 As==01
    4ed8:	30 41       	ret			
    4eda:	3f 40 05 00 	mov	#5,	r15	;#0x0005
    4ede:	30 41       	ret			
    4ee0:	0f 43       	clr	r15		
    4ee2:	30 41       	ret			
    4ee4:	0f 43       	clr	r15		
    4ee6:	30 41       	ret			

00004ee8 <CC2420SpiP__Resource__release>:
    4ee8:	0b 12       	push	r11		
    4eea:	0a 12       	push	r10		
    4eec:	09 12       	push	r9		
    4eee:	0b 42       	mov	r2,	r11	
    4ef0:	3b f2       	and	#8,	r11	;r2 As==11
    4ef2:	32 c2       	dint			
    4ef4:	03 43       	nop			
    4ef6:	c2 9f 0a 11 	cmp.b	r15,	&0x110a	
    4efa:	04 24       	jz	$+10     	;abs 0x4f04
    4efc:	0b 93       	tst	r11		
    4efe:	49 24       	jz	$+148    	;abs 0x4f92
    4f00:	32 d2       	eint			
    4f02:	47 3c       	jmp	$+144    	;abs 0x4f92
    4f04:	f2 43 0a 11 	mov.b	#-1,	&0x110a	;r3 As==11
    4f08:	5c 42 1a 11 	mov.b	&0x111a,r12	
    4f0c:	4c 93       	tst.b	r12		
    4f0e:	05 20       	jnz	$+12     	;abs 0x4f1a
    4f10:	b0 12 68 49 	call	#0x4968	
    4f14:	b0 12 74 4e 	call	#0x4e74	
    4f18:	35 3c       	jmp	$+108    	;abs 0x4f84
    4f1a:	4d 43       	clr.b	r13		
    4f1c:	49 4c       	mov.b	r12,	r9	
    4f1e:	02 12       	push	r2		
    4f20:	32 c2       	dint			
    4f22:	03 43       	nop			
    4f24:	c2 4d 30 01 	mov.b	r13,	&0x0130	
    4f28:	f2 40 cd ff 38 01 	mov.b	#-51,	&0x0138	;#0xffcd
    4f2e:	1f 42 3a 01 	mov	&0x013a,r15	
    4f32:	32 41       	pop	r2		
    4f34:	8f 10       	swpb	r15		
    4f36:	12 c3       	clrc			
    4f38:	4f 10       	rrc.b	r15		
    4f3a:	12 c3       	clrc			
    4f3c:	4f 10       	rrc.b	r15		
    4f3e:	4e 4f       	mov.b	r15,	r14	
    4f40:	4e 5e       	rla.b	r14		
    4f42:	4e 5e       	rla.b	r14		
    4f44:	4f 5e       	add.b	r14,	r15	
    4f46:	4d 8f       	sub.b	r15,	r13	
    4f48:	4f 4d       	mov.b	r13,	r15	
    4f4a:	4a 4d       	mov.b	r13,	r10	
    4f4c:	0e 49       	mov	r9,	r14	
    4f4e:	7d f0 0f 00 	and.b	#15,	r13	;#0x000f
    4f52:	4d 93       	tst.b	r13		
    4f54:	03 24       	jz	$+8      	;abs 0x4f5c
    4f56:	0e 11       	rra	r14		
    4f58:	7d 53       	add.b	#-1,	r13	;r3 As==11
    4f5a:	fb 3f       	jmp	$-8      	;abs 0x4f52
    4f5c:	1e f3       	and	#1,	r14	;r3 As==01
    4f5e:	16 24       	jz	$+46     	;abs 0x4f8c
    4f60:	c2 4f 0a 11 	mov.b	r15,	&0x110a	
    4f64:	1f 43       	mov	#1,	r15	;r3 As==01
    4f66:	4e 4a       	mov.b	r10,	r14	
    4f68:	7e f0 0f 00 	and.b	#15,	r14	;#0x000f
    4f6c:	4e 93       	tst.b	r14		
    4f6e:	03 24       	jz	$+8      	;abs 0x4f76
    4f70:	0f 5f       	rla	r15		
    4f72:	7e 53       	add.b	#-1,	r14	;r3 As==11
    4f74:	fb 3f       	jmp	$-8      	;abs 0x4f6c
    4f76:	4c cf       	bic.b	r15,	r12	
    4f78:	c2 4c 1a 11 	mov.b	r12,	&0x111a	
    4f7c:	7f 40 07 00 	mov.b	#7,	r15	;#0x0007
    4f80:	b0 12 1e 49 	call	#0x491e	
    4f84:	0b 93       	tst	r11		
    4f86:	07 24       	jz	$+16     	;abs 0x4f96
    4f88:	32 d2       	eint			
    4f8a:	05 3c       	jmp	$+12     	;abs 0x4f96
    4f8c:	4d 4f       	mov.b	r15,	r13	
    4f8e:	5d 53       	inc.b	r13		
    4f90:	c6 3f       	jmp	$-114    	;abs 0x4f1e
    4f92:	1f 43       	mov	#1,	r15	;r3 As==01
    4f94:	01 3c       	jmp	$+4      	;abs 0x4f98
    4f96:	0f 43       	clr	r15		
    4f98:	39 41       	pop	r9		
    4f9a:	3a 41       	pop	r10		
    4f9c:	3b 41       	pop	r11		
    4f9e:	30 41       	ret			

00004fa0 <CC2420TransmitP__releaseSpiResource>:
    4fa0:	7f 40 03 00 	mov.b	#3,	r15	;#0x0003
    4fa4:	b0 12 e8 4e 	call	#0x4ee8	
    4fa8:	0f 43       	clr	r15		
    4faa:	30 41       	ret			

00004fac <ArbiterP__0__ResourceDefaultOwner__release>:
    4fac:	d2 93 07 11 	cmp.b	#1,	&0x1107	;r3 As==01
    4fb0:	19 20       	jnz	$+52     	;abs 0x4fe4
    4fb2:	5f 42 5d 11 	mov.b	&0x115d,r15	
    4fb6:	4e 4f       	mov.b	r15,	r14	
    4fb8:	7e 53       	add.b	#-1,	r14	;r3 As==11
    4fba:	6e 93       	cmp.b	#2,	r14	;r3 As==10
    4fbc:	07 2c       	jc	$+16     	;abs 0x4fcc
    4fbe:	e2 43 5d 11 	mov.b	#2,	&0x115d	;r3 As==10
    4fc2:	7f 40 09 00 	mov.b	#9,	r15	;#0x0009
    4fc6:	b0 12 1e 49 	call	#0x491e	
    4fca:	0a 3c       	jmp	$+22     	;abs 0x4fe0
    4fcc:	7f 90 03 00 	cmp.b	#3,	r15	;#0x0003
    4fd0:	0b 20       	jnz	$+24     	;abs 0x4fe8
    4fd2:	d2 42 06 11 07 11 	mov.b	&0x1106,&0x1107	
    4fd8:	f2 43 06 11 	mov.b	#-1,	&0x1106	;r3 As==11
    4fdc:	e2 42 5d 11 	mov.b	#4,	&0x115d	;r2 As==10
    4fe0:	0f 43       	clr	r15		
    4fe2:	30 41       	ret			
    4fe4:	1f 43       	mov	#1,	r15	;r3 As==01
    4fe6:	30 41       	ret			
    4fe8:	1f 43       	mov	#1,	r15	;r3 As==01
    4fea:	30 41       	ret			

00004fec <CC2420TransmitP__Send__sendDone.isra.103>:
    4fec:	0e 42       	mov	r2,	r14	
    4fee:	32 c2       	dint			
    4ff0:	03 43       	nop			
    4ff2:	82 4f 1e 11 	mov	r15,	&0x111e	
    4ff6:	3e f2       	and	#8,	r14	;r2 As==11
    4ff8:	01 24       	jz	$+4      	;abs 0x4ffc
    4ffa:	32 d2       	eint			
    4ffc:	6f 42       	mov.b	#4,	r15	;r2 As==10
    4ffe:	b0 12 1e 49 	call	#0x491e	
    5002:	30 41       	ret			

00005004 <CC2420TransmitP__signalDone>:
    5004:	0b 12       	push	r11		
    5006:	0b 4f       	mov	r15,	r11	
    5008:	92 43 16 11 	mov	#1,	&0x1116	;r3 As==01
    500c:	c2 43 3f 11 	mov.b	#0,	&0x113f	;r3 As==00
    5010:	b0 12 74 4e 	call	#0x4e74	
    5014:	0f 4b       	mov	r11,	r15	
    5016:	b0 12 ec 4f 	call	#0x4fec	
    501a:	3b 41       	pop	r11		
    501c:	30 41       	ret			

0000501e <CC2420TransmitP__attemptSend>:
    501e:	0b 12       	push	r11		
    5020:	0a 12       	push	r10		
    5022:	0b 42       	mov	r2,	r11	
    5024:	3b f2       	and	#8,	r11	;r2 As==11
    5026:	32 c2       	dint			
    5028:	03 43       	nop			
    502a:	b2 92 16 11 	cmp	#8,	&0x1116	;r2 As==11
    502e:	12 20       	jnz	$+38     	;abs 0x5054
    5030:	7f 40 09 00 	mov.b	#9,	r15	;#0x0009
    5034:	b0 12 bc 48 	call	#0x48bc	
    5038:	b0 12 a0 4f 	call	#0x4fa0	
    503c:	b0 12 8c 49 	call	#0x498c	
    5040:	92 43 16 11 	mov	#1,	&0x1116	;r3 As==01
    5044:	3f 40 03 00 	mov	#3,	r15	;#0x0003
    5048:	b0 12 ec 4f 	call	#0x4fec	
    504c:	0b 93       	tst	r11		
    504e:	2f 24       	jz	$+96     	;abs 0x50ae
    5050:	32 d2       	eint			
    5052:	2d 3c       	jmp	$+92     	;abs 0x50ae
    5054:	b0 12 0a 49 	call	#0x490a	
    5058:	c2 93 5e 12 	tst.b	&0x125e	
    505c:	03 24       	jz	$+8      	;abs 0x5064
    505e:	7f 40 05 00 	mov.b	#5,	r15	;#0x0005
    5062:	01 3c       	jmp	$+4      	;abs 0x5066
    5064:	6f 42       	mov.b	#4,	r15	;r2 As==10
    5066:	b0 12 bc 48 	call	#0x48bc	
    506a:	3f f2       	and	#8,	r15	;r2 As==11
    506c:	04 20       	jnz	$+10     	;abs 0x5076
    506e:	b0 12 bc 48 	call	#0x48bc	
    5072:	3f f2       	and	#8,	r15	;r2 As==11
    5074:	04 20       	jnz	$+10     	;abs 0x507e
    5076:	5a 43       	mov.b	#1,	r10	;r3 As==01
    5078:	3f 40 03 00 	mov	#3,	r15	;#0x0003
    507c:	03 3c       	jmp	$+8      	;abs 0x5084
    507e:	4a 43       	clr.b	r10		
    5080:	3f 40 05 00 	mov	#5,	r15	;#0x0005
    5084:	82 4f 16 11 	mov	r15,	&0x1116	
    5088:	b0 12 8c 49 	call	#0x498c	
    508c:	0b 93       	tst	r11		
    508e:	01 24       	jz	$+4      	;abs 0x5092
    5090:	32 d2       	eint			
    5092:	4a 93       	tst.b	r10		
    5094:	07 24       	jz	$+16     	;abs 0x50a4
    5096:	c2 43 2a 11 	mov.b	#0,	&0x112a	;r3 As==00
    509a:	b0 12 a0 4f 	call	#0x4fa0	
    509e:	b0 12 fc 4a 	call	#0x4afc	
    50a2:	05 3c       	jmp	$+12     	;abs 0x50ae
    50a4:	3e 40 40 01 	mov	#320,	r14	;#0x0140
    50a8:	0f 43       	clr	r15		
    50aa:	b0 12 c6 4a 	call	#0x4ac6	
    50ae:	3a 41       	pop	r10		
    50b0:	3b 41       	pop	r11		
    50b2:	30 41       	ret			

000050b4 <CC2420SpiP__Reg__write>:
    50b4:	0b 12       	push	r11		
    50b6:	0a 12       	push	r10		
    50b8:	09 12       	push	r9		
    50ba:	49 4f       	mov.b	r15,	r9	
    50bc:	0a 4e       	mov	r14,	r10	
    50be:	0b 42       	mov	r2,	r11	
    50c0:	3b f2       	and	#8,	r11	;r2 As==11
    50c2:	32 c2       	dint			
    50c4:	03 43       	nop			
    50c6:	b0 12 a4 48 	call	#0x48a4	
    50ca:	4f 93       	tst.b	r15		
    50cc:	04 24       	jz	$+10     	;abs 0x50d6
    50ce:	0b 93       	tst	r11		
    50d0:	10 24       	jz	$+34     	;abs 0x50f2
    50d2:	32 d2       	eint			
    50d4:	0e 3c       	jmp	$+30     	;abs 0x50f2
    50d6:	0b 93       	tst	r11		
    50d8:	01 24       	jz	$+4      	;abs 0x50dc
    50da:	32 d2       	eint			
    50dc:	4f 49       	mov.b	r9,	r15	
    50de:	b0 12 6c 45 	call	#0x456c	
    50e2:	0f 4a       	mov	r10,	r15	
    50e4:	8f 10       	swpb	r15		
    50e6:	b0 12 6c 45 	call	#0x456c	
    50ea:	4f 4a       	mov.b	r10,	r15	
    50ec:	b0 12 6c 45 	call	#0x456c	
    50f0:	01 3c       	jmp	$+4      	;abs 0x50f4
    50f2:	4f 43       	clr.b	r15		
    50f4:	39 41       	pop	r9		
    50f6:	3a 41       	pop	r10		
    50f8:	3b 41       	pop	r11		
    50fa:	30 41       	ret			

000050fc <CC2420TransmitP__loadTXFIFO>:
    50fc:	0b 12       	push	r11		
    50fe:	0a 12       	push	r10		
    5100:	09 12       	push	r9		
    5102:	1b 42 62 11 	mov	&0x1162,r11	
    5106:	5a 4b 2a 00 	mov.b	42(r11),r10	;0x002a(r11)
    510a:	4a 93       	tst.b	r10		
    510c:	02 20       	jnz	$+6      	;abs 0x5112
    510e:	7a 40 1f 00 	mov.b	#31,	r10	;#0x001f
    5112:	b0 12 0a 49 	call	#0x490a	
    5116:	c2 9a 52 11 	cmp.b	r10,	&0x1152	
    511a:	07 24       	jz	$+16     	;abs 0x512a
    511c:	4e 4a       	mov.b	r10,	r14	
    511e:	3e d0 e0 80 	bis	#-32544,r14	;#0x80e0
    5122:	7f 40 15 00 	mov.b	#21,	r15	;#0x0015
    5126:	b0 12 b4 50 	call	#0x50b4	
    512a:	c2 4a 52 11 	mov.b	r10,	&0x1152	
    512e:	69 4b       	mov.b	@r11,	r9	
    5130:	0a 42       	mov	r2,	r10	
    5132:	3a f2       	and	#8,	r10	;r2 As==11
    5134:	32 c2       	dint			
    5136:	03 43       	nop			
    5138:	b0 12 a4 48 	call	#0x48a4	
    513c:	4f 93       	tst.b	r15		
    513e:	04 24       	jz	$+10     	;abs 0x5148
    5140:	0a 93       	tst	r10		
    5142:	21 24       	jz	$+68     	;abs 0x5186
    5144:	32 d2       	eint			
    5146:	1f 3c       	jmp	$+64     	;abs 0x5186
    5148:	0a 93       	tst	r10		
    514a:	01 24       	jz	$+4      	;abs 0x514e
    514c:	32 d2       	eint			
    514e:	b2 40 3e 00 7e 11 	mov	#62,	&0x117e	;#0x003e
    5154:	7f 40 3e 00 	mov.b	#62,	r15	;#0x003e
    5158:	b0 12 6c 45 	call	#0x456c	
    515c:	4f 49       	mov.b	r9,	r15	
    515e:	7f 53       	add.b	#-1,	r15	;r3 As==11
    5160:	4f 4f       	mov.b	r15,	r15	
    5162:	c2 43 7c 11 	mov.b	#0,	&0x117c	;r3 As==00
    5166:	82 4b 6e 11 	mov	r11,	&0x116e	
    516a:	82 43 d4 11 	mov	#0,	&0x11d4	;r3 As==00
    516e:	82 4f 52 12 	mov	r15,	&0x1252	
    5172:	82 43 4e 12 	mov	#0,	&0x124e	;r3 As==00
    5176:	0f 93       	tst	r15		
    5178:	03 24       	jz	$+8      	;abs 0x5180
    517a:	b0 12 b0 4d 	call	#0x4db0	
    517e:	03 3c       	jmp	$+8      	;abs 0x5186
    5180:	7f 42       	mov.b	#8,	r15	;r2 As==11
    5182:	b0 12 1e 49 	call	#0x491e	
    5186:	39 41       	pop	r9		
    5188:	3a 41       	pop	r10		
    518a:	3b 41       	pop	r11		
    518c:	30 41       	ret			

0000518e <CC2420ControlP__writeFsctrl>:
    518e:	0e 42       	mov	r2,	r14	
    5190:	32 c2       	dint			
    5192:	03 43       	nop			
    5194:	5f 42 f0 11 	mov.b	&0x11f0,r15	
    5198:	3e f2       	and	#8,	r14	;r2 As==11
    519a:	01 24       	jz	$+4      	;abs 0x519e
    519c:	32 d2       	eint			
    519e:	4e 4f       	mov.b	r15,	r14	
    51a0:	0f 4e       	mov	r14,	r15	
    51a2:	0f 5f       	rla	r15		
    51a4:	0f 5f       	rla	r15		
    51a6:	0f 5e       	add	r14,	r15	
    51a8:	3f 50 2e 01 	add	#302,	r15	;#0x012e
    51ac:	0e 4f       	mov	r15,	r14	
    51ae:	3e d0 00 40 	bis	#16384,	r14	;#0x4000
    51b2:	7f 40 18 00 	mov.b	#24,	r15	;#0x0018
    51b6:	b0 12 b4 50 	call	#0x50b4	
    51ba:	30 41       	ret			

000051bc <CC2420ControlP__writeMdmctrl0>:
    51bc:	0b 12       	push	r11		
    51be:	0b 42       	mov	r2,	r11	
    51c0:	3b f2       	and	#8,	r11	;r2 As==11
    51c2:	32 c2       	dint			
    51c4:	03 43       	nop			
    51c6:	c2 93 53 11 	tst.b	&0x1153	
    51ca:	04 24       	jz	$+10     	;abs 0x51d4
    51cc:	1e 43       	mov	#1,	r14	;r3 As==01
    51ce:	c2 93 59 12 	tst.b	&0x1259	
    51d2:	01 20       	jnz	$+4      	;abs 0x51d6
    51d4:	0e 43       	clr	r14		
    51d6:	4e 4e       	mov.b	r14,	r14	
    51d8:	8e 10       	swpb	r14		
    51da:	0e 5e       	rla	r14		
    51dc:	0e 5e       	rla	r14		
    51de:	0e 5e       	rla	r14		
    51e0:	c2 93 60 11 	tst.b	&0x1160	
    51e4:	04 24       	jz	$+10     	;abs 0x51ee
    51e6:	1f 43       	mov	#1,	r15	;r3 As==01
    51e8:	c2 93 e6 11 	tst.b	&0x11e6	
    51ec:	01 20       	jnz	$+4      	;abs 0x51f0
    51ee:	0f 43       	clr	r15		
    51f0:	3e d0 e2 22 	bis	#8930,	r14	;#0x22e2
    51f4:	0f 5f       	rla	r15		
    51f6:	0f 5f       	rla	r15		
    51f8:	0f 5f       	rla	r15		
    51fa:	0f 5f       	rla	r15		
    51fc:	0e df       	bis	r15,	r14	
    51fe:	7f 40 11 00 	mov.b	#17,	r15	;#0x0011
    5202:	b0 12 b4 50 	call	#0x50b4	
    5206:	0b 93       	tst	r11		
    5208:	01 24       	jz	$+4      	;abs 0x520c
    520a:	32 d2       	eint			
    520c:	3b 41       	pop	r11		
    520e:	30 41       	ret			

00005210 <CC2420SpiP__Ram__write>:
    5210:	0b 12       	push	r11		
    5212:	0a 12       	push	r10		
    5214:	09 12       	push	r9		
    5216:	08 12       	push	r8		
    5218:	07 12       	push	r7		
    521a:	08 4f       	mov	r15,	r8	
    521c:	4a 4e       	mov.b	r14,	r10	
    521e:	07 4d       	mov	r13,	r7	
    5220:	4b 4c       	mov.b	r12,	r11	
    5222:	09 42       	mov	r2,	r9	
    5224:	39 f2       	and	#8,	r9	;r2 As==11
    5226:	32 c2       	dint			
    5228:	03 43       	nop			
    522a:	b0 12 a4 48 	call	#0x48a4	
    522e:	4f 93       	tst.b	r15		
    5230:	04 24       	jz	$+10     	;abs 0x523a
    5232:	09 93       	tst	r9		
    5234:	22 24       	jz	$+70     	;abs 0x527a
    5236:	32 d2       	eint			
    5238:	20 3c       	jmp	$+66     	;abs 0x527a
    523a:	09 93       	tst	r9		
    523c:	01 24       	jz	$+4      	;abs 0x5240
    523e:	32 d2       	eint			
    5240:	4a 4a       	mov.b	r10,	r10	
    5242:	0a 58       	add	r8,	r10	
    5244:	4f 4a       	mov.b	r10,	r15	
    5246:	7f d0 80 ff 	bis.b	#-128,	r15	;#0xff80
    524a:	b0 12 6c 45 	call	#0x456c	
    524e:	49 4f       	mov.b	r15,	r9	
    5250:	0e 4a       	mov	r10,	r14	
    5252:	12 c3       	clrc			
    5254:	0e 10       	rrc	r14		
    5256:	4f 4e       	mov.b	r14,	r15	
    5258:	7f f0 c0 ff 	and.b	#-64,	r15	;#0xffc0
    525c:	b0 12 6c 45 	call	#0x456c	
    5260:	4a 4b       	mov.b	r11,	r10	
    5262:	08 3c       	jmp	$+18     	;abs 0x5274
    5264:	4f 4b       	mov.b	r11,	r15	
    5266:	0e 4a       	mov	r10,	r14	
    5268:	0e 8f       	sub	r15,	r14	
    526a:	0e 57       	add	r7,	r14	
    526c:	6f 4e       	mov.b	@r14,	r15	
    526e:	b0 12 6c 45 	call	#0x456c	
    5272:	7b 53       	add.b	#-1,	r11	;r3 As==11
    5274:	4b 93       	tst.b	r11		
    5276:	f6 23       	jnz	$-18     	;abs 0x5264
    5278:	01 3c       	jmp	$+4      	;abs 0x527c
    527a:	49 43       	clr.b	r9		
    527c:	4f 49       	mov.b	r9,	r15	
    527e:	37 41       	pop	r7		
    5280:	38 41       	pop	r8		
    5282:	39 41       	pop	r9		
    5284:	3a 41       	pop	r10		
    5286:	3b 41       	pop	r11		
    5288:	30 41       	ret			

0000528a <CC2420ControlP__writeId>:
    528a:	0b 12       	push	r11		
    528c:	31 50 f4 ff 	add	#-12,	r1	;#0xfff4
    5290:	0b 42       	mov	r2,	r11	
    5292:	32 c2       	dint			
    5294:	03 43       	nop			
    5296:	3d 42       	mov	#8,	r13	;r2 As==11
    5298:	3e 40 e8 11 	mov	#4584,	r14	;#0x11e8
    529c:	0f 41       	mov	r1,	r15	
    529e:	b0 12 40 6b 	call	#0x6b40	
    52a2:	1f 42 5e 11 	mov	&0x115e,r15	
    52a6:	c1 4f 08 00 	mov.b	r15,	8(r1)	;0x0008(r1)
    52aa:	8f 10       	swpb	r15		
    52ac:	c1 4f 09 00 	mov.b	r15,	9(r1)	;0x0009(r1)
    52b0:	1f 42 7a 11 	mov	&0x117a,r15	
    52b4:	c1 4f 0a 00 	mov.b	r15,	10(r1)	;0x000a(r1)
    52b8:	8f 10       	swpb	r15		
    52ba:	c1 4f 0b 00 	mov.b	r15,	11(r1)	;0x000b(r1)
    52be:	3b b2       	bit	#8,	r11	;r2 As==11
    52c0:	01 24       	jz	$+4      	;abs 0x52c4
    52c2:	32 d2       	eint			
    52c4:	7c 40 0c 00 	mov.b	#12,	r12	;#0x000c
    52c8:	0d 41       	mov	r1,	r13	
    52ca:	4e 43       	clr.b	r14		
    52cc:	3f 40 60 01 	mov	#352,	r15	;#0x0160
    52d0:	b0 12 10 52 	call	#0x5210	
    52d4:	31 50 0c 00 	add	#12,	r1	;#0x000c
    52d8:	3b 41       	pop	r11		
    52da:	30 41       	ret			

000052dc <HplMsp430Usart0P__Usart__setModeSpi.constprop.131>:
    52dc:	0b 12       	push	r11		
    52de:	0b 42       	mov	r2,	r11	
    52e0:	32 c2       	dint			
    52e2:	03 43       	nop			
    52e4:	5f 43       	mov.b	#1,	r15	;r3 As==01
    52e6:	b0 12 04 4d 	call	#0x4d04	
    52ea:	f2 f0 da ff 70 00 	and.b	#-38,	&0x0070	;#0xffda
    52f0:	5f 43       	mov.b	#1,	r15	;r3 As==01
    52f2:	b0 12 04 4d 	call	#0x4d04	
    52f6:	f2 f0 3f 00 04 00 	and.b	#63,	&0x0004	;#0x003f
    52fc:	f2 f0 ef ff 1b 00 	and.b	#-17,	&0x001b	;#0xffef
    5302:	f2 f0 df ff 1b 00 	and.b	#-33,	&0x001b	;#0xffdf
    5308:	5f 42 f6 6c 	mov.b	&0x6cf6,r15	
    530c:	7f d0 05 00 	bis.b	#5,	r15	;#0x0005
    5310:	c2 4f 70 00 	mov.b	r15,	&0x0070	
    5314:	d2 42 f7 6c 71 00 	mov.b	&0x6cf7,&0x0071	
    531a:	e2 43 74 00 	mov.b	#2,	&0x0074	;r3 As==10
    531e:	c2 43 75 00 	mov.b	#0,	&0x0075	;r3 As==00
    5322:	c2 43 73 00 	mov.b	#0,	&0x0073	;r3 As==00
    5326:	e2 d3 1b 00 	bis.b	#2,	&0x001b	;r3 As==10
    532a:	e2 d2 1b 00 	bis.b	#4,	&0x001b	;r2 As==10
    532e:	f2 d2 1b 00 	bis.b	#8,	&0x001b	;r2 As==11
    5332:	f2 d0 40 00 04 00 	bis.b	#64,	&0x0004	;#0x0040
    5338:	4f 43       	clr.b	r15		
    533a:	b0 12 04 4d 	call	#0x4d04	
    533e:	f2 f0 3f 00 02 00 	and.b	#63,	&0x0002	;#0x003f
    5344:	f2 f0 3f 00 00 00 	and.b	#63,	&0x0000	;#0x003f
    534a:	3b b2       	bit	#8,	r11	;r2 As==11
    534c:	01 24       	jz	$+4      	;abs 0x5350
    534e:	32 d2       	eint			
    5350:	3b 41       	pop	r11		
    5352:	30 41       	ret			

00005354 <StateImplP__State__requestState.constprop.132>:
    5354:	0e 42       	mov	r2,	r14	
    5356:	3e f2       	and	#8,	r14	;r2 As==11
    5358:	32 c2       	dint			
    535a:	03 43       	nop			
    535c:	4f 4f       	mov.b	r15,	r15	
    535e:	3f 50 d8 11 	add	#4568,	r15	;#0x11d8
    5362:	cf 93 00 00 	tst.b	0(r15)		;0x0000(r15)
    5366:	04 20       	jnz	$+10     	;abs 0x5370
    5368:	df 43 00 00 	mov.b	#1,	0(r15)	;r3 As==01, 0x0000(r15)
    536c:	0f 43       	clr	r15		
    536e:	01 3c       	jmp	$+4      	;abs 0x5372
    5370:	1f 43       	mov	#1,	r15	;r3 As==01
    5372:	0e 93       	tst	r14		
    5374:	01 24       	jz	$+4      	;abs 0x5378
    5376:	32 d2       	eint			
    5378:	30 41       	ret			

0000537a <CC2420SpiP__Resource__request>:
    537a:	0b 12       	push	r11		
    537c:	0a 12       	push	r10		
    537e:	4a 4f       	mov.b	r15,	r10	
    5380:	0b 42       	mov	r2,	r11	
    5382:	3b f2       	and	#8,	r11	;r2 As==11
    5384:	32 c2       	dint			
    5386:	03 43       	nop			
    5388:	4f 43       	clr.b	r15		
    538a:	b0 12 54 53 	call	#0x5354	
    538e:	0f 93       	tst	r15		
    5390:	3b 20       	jnz	$+120    	;abs 0x5408
    5392:	c2 4a 0a 11 	mov.b	r10,	&0x110a	
    5396:	c2 93 07 11 	tst.b	&0x1107	
    539a:	04 20       	jnz	$+10     	;abs 0x53a4
    539c:	1f 43       	mov	#1,	r15	;r3 As==01
    539e:	e2 92 5d 11 	cmp.b	#4,	&0x115d	;r2 As==10
    53a2:	01 24       	jz	$+4      	;abs 0x53a6
    53a4:	0f 43       	clr	r15		
    53a6:	4f 93       	tst.b	r15		
    53a8:	05 24       	jz	$+12     	;abs 0x53b4
    53aa:	7f 40 07 00 	mov.b	#7,	r15	;#0x0007
    53ae:	b0 12 1e 49 	call	#0x491e	
    53b2:	35 3c       	jmp	$+108    	;abs 0x541e
    53b4:	c2 93 06 11 	tst.b	&0x1106	
    53b8:	32 24       	jz	$+102    	;abs 0x541e
    53ba:	1f 43       	mov	#1,	r15	;r3 As==01
    53bc:	f2 93 74 11 	cmp.b	#-1,	&0x1174	;r3 As==11
    53c0:	04 20       	jnz	$+10     	;abs 0x53ca
    53c2:	c2 93 08 11 	tst.b	&0x1108	
    53c6:	01 24       	jz	$+4      	;abs 0x53ca
    53c8:	0f 43       	clr	r15		
    53ca:	0f 93       	tst	r15		
    53cc:	28 20       	jnz	$+82     	;abs 0x541e
    53ce:	f2 93 09 11 	cmp.b	#-1,	&0x1109	;r3 As==11
    53d2:	03 20       	jnz	$+8      	;abs 0x53da
    53d4:	c2 43 09 11 	mov.b	#0,	&0x1109	;r3 As==00
    53d8:	04 3c       	jmp	$+10     	;abs 0x53e2
    53da:	5f 42 08 11 	mov.b	&0x1108,r15	
    53de:	cf 43 74 11 	mov.b	#0,	4468(r15);r3 As==00, 0x1174(r15)
    53e2:	c2 43 08 11 	mov.b	#0,	&0x1108	;r3 As==00
    53e6:	c2 93 5d 11 	tst.b	&0x115d	
    53ea:	19 20       	jnz	$+52     	;abs 0x541e
    53ec:	d2 43 5d 11 	mov.b	#1,	&0x115d	;r3 As==01
    53f0:	f2 93 09 11 	cmp.b	#-1,	&0x1109	;r3 As==11
    53f4:	03 24       	jz	$+8      	;abs 0x53fc
    53f6:	b0 12 70 4d 	call	#0x4d70	
    53fa:	01 3c       	jmp	$+4      	;abs 0x53fe
    53fc:	7f 43       	mov.b	#-1,	r15	;r3 As==11
    53fe:	c2 4f 06 11 	mov.b	r15,	&0x1106	
    5402:	b0 12 ac 4f 	call	#0x4fac	
    5406:	0b 3c       	jmp	$+24     	;abs 0x541e
    5408:	1e 43       	mov	#1,	r14	;r3 As==01
    540a:	4f 4a       	mov.b	r10,	r15	
    540c:	7f f0 0f 00 	and.b	#15,	r15	;#0x000f
    5410:	4f 93       	tst.b	r15		
    5412:	03 24       	jz	$+8      	;abs 0x541a
    5414:	0e 5e       	rla	r14		
    5416:	7f 53       	add.b	#-1,	r15	;r3 As==11
    5418:	fb 3f       	jmp	$-8      	;abs 0x5410
    541a:	c2 de 1a 11 	bis.b	r14,	&0x111a	
    541e:	0b 93       	tst	r11		
    5420:	01 24       	jz	$+4      	;abs 0x5424
    5422:	32 d2       	eint			
    5424:	0f 43       	clr	r15		
    5426:	3a 41       	pop	r10		
    5428:	3b 41       	pop	r11		
    542a:	30 41       	ret			

0000542c <CC2420SpiP__Resource__immediateRequest>:
    542c:	0b 12       	push	r11		
    542e:	0a 12       	push	r10		
    5430:	4a 4f       	mov.b	r15,	r10	
    5432:	0b 42       	mov	r2,	r11	
    5434:	3b f2       	and	#8,	r11	;r2 As==11
    5436:	32 c2       	dint			
    5438:	03 43       	nop			
    543a:	4f 43       	clr.b	r15		
    543c:	b0 12 54 53 	call	#0x5354	
    5440:	0f 93       	tst	r15		
    5442:	04 24       	jz	$+10     	;abs 0x544c
    5444:	0b 93       	tst	r11		
    5446:	26 24       	jz	$+78     	;abs 0x5494
    5448:	32 d2       	eint			
    544a:	24 3c       	jmp	$+74     	;abs 0x5494
    544c:	c2 93 07 11 	tst.b	&0x1107	
    5450:	04 20       	jnz	$+10     	;abs 0x545a
    5452:	1f 43       	mov	#1,	r15	;r3 As==01
    5454:	e2 92 5d 11 	cmp.b	#4,	&0x115d	;r2 As==10
    5458:	01 24       	jz	$+4      	;abs 0x545c
    545a:	0f 43       	clr	r15		
    545c:	4f 93       	tst.b	r15		
    545e:	0f 20       	jnz	$+32     	;abs 0x547e
    5460:	c2 93 5d 11 	tst.b	&0x115d	
    5464:	1c 20       	jnz	$+58     	;abs 0x549e
    5466:	f2 40 03 00 5d 11 	mov.b	#3,	&0x115d	;#0x0003
    546c:	c2 43 06 11 	mov.b	#0,	&0x1106	;r3 As==00
    5470:	b0 12 ac 4f 	call	#0x4fac	
    5474:	c2 93 07 11 	tst.b	&0x1107	
    5478:	06 20       	jnz	$+14     	;abs 0x5486
    547a:	b0 12 dc 52 	call	#0x52dc	
    547e:	c2 4a 0a 11 	mov.b	r10,	&0x110a	
    5482:	0f 43       	clr	r15		
    5484:	03 3c       	jmp	$+8      	;abs 0x548c
    5486:	c2 43 5d 11 	mov.b	#0,	&0x115d	;r3 As==00
    548a:	09 3c       	jmp	$+20     	;abs 0x549e
    548c:	0b 93       	tst	r11		
    548e:	04 24       	jz	$+10     	;abs 0x5498
    5490:	32 d2       	eint			
    5492:	02 3c       	jmp	$+6      	;abs 0x5498
    5494:	3f 40 05 00 	mov	#5,	r15	;#0x0005
    5498:	3a 41       	pop	r10		
    549a:	3b 41       	pop	r11		
    549c:	30 41       	ret			
    549e:	b0 12 68 49 	call	#0x4968	
    54a2:	1f 43       	mov	#1,	r15	;r3 As==01
    54a4:	f3 3f       	jmp	$-24     	;abs 0x548c

000054a6 <CC2420ReceiveP__beginReceive>:
    54a6:	a2 43 4e 11 	mov	#2,	&0x114e	;r3 As==10
    54aa:	d2 43 5c 11 	mov.b	#1,	&0x115c	;r3 As==01
    54ae:	e2 92 0a 11 	cmp.b	#4,	&0x110a	;r2 As==10
    54b2:	05 24       	jz	$+12     	;abs 0x54be
    54b4:	6f 42       	mov.b	#4,	r15	;r2 As==10
    54b6:	b0 12 2c 54 	call	#0x542c	
    54ba:	0f 93       	tst	r15		
    54bc:	03 20       	jnz	$+8      	;abs 0x54c4
    54be:	b0 12 3a 4e 	call	#0x4e3a	
    54c2:	30 41       	ret			
    54c4:	6f 42       	mov.b	#4,	r15	;r2 As==10
    54c6:	b0 12 7a 53 	call	#0x537a	
    54ca:	30 41       	ret			

000054cc <CC2420ReceiveP__waitForNextPacket>:
    54cc:	0b 12       	push	r11		
    54ce:	0b 42       	mov	r2,	r11	
    54d0:	3b f2       	and	#8,	r11	;r2 As==11
    54d2:	32 c2       	dint			
    54d4:	03 43       	nop			
    54d6:	82 93 4e 11 	tst	&0x114e	
    54da:	18 24       	jz	$+50     	;abs 0x550c
    54dc:	c2 43 5c 11 	mov.b	#0,	&0x115c	;r3 As==00
    54e0:	5f 42 54 11 	mov.b	&0x1154,r15	
    54e4:	4f 93       	tst.b	r15		
    54e6:	03 24       	jz	$+8      	;abs 0x54ee
    54e8:	f2 b2 20 00 	bit.b	#8,	&0x0020	;r2 As==11
    54ec:	05 20       	jnz	$+12     	;abs 0x54f8
    54ee:	d2 b3 20 00 	bit.b	#1,	&0x0020	;r3 As==01
    54f2:	08 20       	jnz	$+18     	;abs 0x5504
    54f4:	4f 93       	tst.b	r15		
    54f6:	03 24       	jz	$+8      	;abs 0x54fe
    54f8:	7f 53       	add.b	#-1,	r15	;r3 As==11
    54fa:	c2 4f 54 11 	mov.b	r15,	&0x1154	
    54fe:	b0 12 a6 54 	call	#0x54a6	
    5502:	07 3c       	jmp	$+16     	;abs 0x5512
    5504:	92 43 4e 11 	mov	#1,	&0x114e	;r3 As==01
    5508:	c2 43 54 11 	mov.b	#0,	&0x1154	;r3 As==00
    550c:	6f 42       	mov.b	#4,	r15	;r2 As==10
    550e:	b0 12 e8 4e 	call	#0x4ee8	
    5512:	0b 93       	tst	r11		
    5514:	01 24       	jz	$+4      	;abs 0x5518
    5516:	32 d2       	eint			
    5518:	3b 41       	pop	r11		
    551a:	30 41       	ret			

0000551c <CC2420ReceiveP__flush>:
    551c:	b0 12 72 46 	call	#0x4672	
    5520:	b0 12 8c 49 	call	#0x498c	
    5524:	b0 12 0a 49 	call	#0x490a	
    5528:	7f 42       	mov.b	#8,	r15	;r2 As==11
    552a:	b0 12 bc 48 	call	#0x48bc	
    552e:	7f 42       	mov.b	#8,	r15	;r2 As==11
    5530:	b0 12 bc 48 	call	#0x48bc	
    5534:	b0 12 8c 49 	call	#0x498c	
    5538:	6f 42       	mov.b	#4,	r15	;r2 As==10
    553a:	b0 12 e8 4e 	call	#0x4ee8	
    553e:	b0 12 cc 54 	call	#0x54cc	
    5542:	30 41       	ret			

00005544 <Msp430SpiNoDmaP__0__signalDone>:
    5544:	0b 12       	push	r11		
    5546:	0a 12       	push	r10		
    5548:	09 12       	push	r9		
    554a:	08 12       	push	r8		
    554c:	07 12       	push	r7		
    554e:	17 42 d4 11 	mov	&0x11d4,r7	
    5552:	c2 93 7c 11 	tst.b	&0x117c	
    5556:	02 24       	jz	$+6      	;abs 0x555c
    5558:	30 40 4c 58 	br	#0x584c	
    555c:	1f 42 7e 11 	mov	&0x117e,r15	
    5560:	3f b0 40 00 	bit	#64,	r15	;#0x0040
    5564:	02 20       	jnz	$+6      	;abs 0x556a
    5566:	30 40 e4 57 	br	#0x57e4	
    556a:	7f f0 bf ff 	and.b	#-65,	r15	;#0xffbf
    556e:	7f 90 3f 00 	cmp.b	#63,	r15	;#0x003f
    5572:	02 24       	jz	$+6      	;abs 0x5578
    5574:	30 40 4c 58 	br	#0x584c	
    5578:	1b 42 24 11 	mov	&0x1124,r11	
    557c:	6e 4b       	mov.b	@r11,	r14	
    557e:	c2 4e 50 11 	mov.b	r14,	&0x1150	
    5582:	1f 42 4e 11 	mov	&0x114e,r15	
    5586:	3f 90 05 00 	cmp	#5,	r15	;#0x0005
    558a:	3a 24       	jz	$+118    	;abs 0x5600
    558c:	3f 90 06 00 	cmp	#6,	r15	;#0x0006
    5590:	87 24       	jz	$+272    	;abs 0x56a0
    5592:	2f 93       	cmp	#2,	r15	;r3 As==10
    5594:	02 24       	jz	$+6      	;abs 0x559a
    5596:	30 40 d4 57 	br	#0x57d4	
    559a:	b2 40 05 00 4e 11 	mov	#5,	&0x114e	;#0x0005
    55a0:	5d 42 3e 11 	mov.b	&0x113e,r13	
    55a4:	4d 9e       	cmp.b	r14,	r13	
    55a6:	28 24       	jz	$+82     	;abs 0x55f8
    55a8:	27 28       	jnc	$+80     	;abs 0x55f8
    55aa:	f2 b2 20 00 	bit.b	#8,	&0x0020	;r2 As==11
    55ae:	08 20       	jnz	$+18     	;abs 0x55c0
    55b0:	d2 b3 20 00 	bit.b	#1,	&0x0020	;r3 As==01
    55b4:	05 20       	jnz	$+12     	;abs 0x55c0
    55b6:	4f 4e       	mov.b	r14,	r15	
    55b8:	7f e3       	xor.b	#-1,	r15	;r3 As==11
    55ba:	4f 5d       	add.b	r13,	r15	
    55bc:	c2 4f 3e 11 	mov.b	r15,	&0x113e	
    55c0:	7e 90 2a 00 	cmp.b	#42,	r14	;#0x002a
    55c4:	19 2c       	jc	$+52     	;abs 0x55f8
    55c6:	4e 93       	tst.b	r14		
    55c8:	0e 24       	jz	$+30     	;abs 0x55e6
    55ca:	0f 4b       	mov	r11,	r15	
    55cc:	1f 53       	inc	r15		
    55ce:	7e 92       	cmp.b	#8,	r14	;r2 As==11
    55d0:	03 28       	jnc	$+8      	;abs 0x55d8
    55d2:	7e 40 07 00 	mov.b	#7,	r14	;#0x0007
    55d6:	03 3c       	jmp	$+8      	;abs 0x55de
    55d8:	b2 40 06 00 4e 11 	mov	#6,	&0x114e	;#0x0006
    55de:	b0 12 4a 4e 	call	#0x4e4a	
    55e2:	30 40 4c 58 	br	#0x584c	
    55e6:	c2 43 5c 11 	mov.b	#0,	&0x115c	;r3 As==00
    55ea:	b0 12 8c 49 	call	#0x498c	
    55ee:	6f 42       	mov.b	#4,	r15	;r2 As==10
    55f0:	b0 12 e8 4e 	call	#0x4ee8	
    55f4:	30 40 ce 57 	br	#0x57ce	
    55f8:	b0 12 1c 55 	call	#0x551c	
    55fc:	30 40 4c 58 	br	#0x584c	
    5600:	b2 40 06 00 4e 11 	mov	#6,	&0x114e	;#0x0006
    5606:	c2 93 60 11 	tst.b	&0x1160	
    560a:	43 24       	jz	$+136    	;abs 0x5692
    560c:	c2 93 e6 11 	tst.b	&0x11e6	
    5610:	40 20       	jnz	$+130    	;abs 0x5692
    5612:	5f 4b 02 00 	mov.b	2(r11),	r15	;0x0002(r11)
    5616:	8f 10       	swpb	r15		
    5618:	5e 4b 01 00 	mov.b	1(r11),	r14	;0x0001(r11)
    561c:	0f de       	bis	r14,	r15	
    561e:	3f f0 20 00 	and	#32,	r15	;#0x0020
    5622:	37 24       	jz	$+112    	;abs 0x5692
    5624:	5f 4b 07 00 	mov.b	7(r11),	r15	;0x0007(r11)
    5628:	8f 10       	swpb	r15		
    562a:	5e 4b 06 00 	mov.b	6(r11),	r14	;0x0006(r11)
    562e:	0f de       	bis	r14,	r15	
    5630:	0e 42       	mov	r2,	r14	
    5632:	32 c2       	dint			
    5634:	03 43       	nop			
    5636:	1d 42 7a 11 	mov	&0x117a,r13	
    563a:	3e f2       	and	#8,	r14	;r2 As==11
    563c:	01 24       	jz	$+4      	;abs 0x5640
    563e:	32 d2       	eint			
    5640:	0f 9d       	cmp	r13,	r15	
    5642:	08 24       	jz	$+18     	;abs 0x5654
    5644:	5f 4b 07 00 	mov.b	7(r11),	r15	;0x0007(r11)
    5648:	8f 10       	swpb	r15		
    564a:	5e 4b 06 00 	mov.b	6(r11),	r14	;0x0006(r11)
    564e:	0f de       	bis	r14,	r15	
    5650:	3f 93       	cmp	#-1,	r15	;r3 As==11
    5652:	1f 20       	jnz	$+64     	;abs 0x5692
    5654:	5f 4b 02 00 	mov.b	2(r11),	r15	;0x0002(r11)
    5658:	8f 10       	swpb	r15		
    565a:	5e 4b 01 00 	mov.b	1(r11),	r14	;0x0001(r11)
    565e:	0f de       	bis	r14,	r15	
    5660:	3f f0 07 00 	and	#7,	r15	;#0x0007
    5664:	1f 93       	cmp	#1,	r15	;r3 As==01
    5666:	15 20       	jnz	$+44     	;abs 0x5692
    5668:	b0 12 8c 49 	call	#0x498c	
    566c:	b0 12 0a 49 	call	#0x490a	
    5670:	7f 40 0a 00 	mov.b	#10,	r15	;#0x000a
    5674:	b0 12 bc 48 	call	#0x48bc	
    5678:	b0 12 8c 49 	call	#0x498c	
    567c:	b0 12 0a 49 	call	#0x490a	
    5680:	5e 42 50 11 	mov.b	&0x1150,r14	
    5684:	7e 50 f9 ff 	add.b	#-7,	r14	;#0xfff9
    5688:	0f 4b       	mov	r11,	r15	
    568a:	3f 52       	add	#8,	r15	;r2 As==11
    568c:	b0 12 ce 4d 	call	#0x4dce	
    5690:	dd 3c       	jmp	$+444    	;abs 0x584c
    5692:	5e 42 50 11 	mov.b	&0x1150,r14	
    5696:	7e 50 f9 ff 	add.b	#-7,	r14	;#0xfff9
    569a:	0f 4b       	mov	r11,	r15	
    569c:	3f 52       	add	#8,	r15	;r2 As==11
    569e:	9f 3f       	jmp	$-192    	;abs 0x55de
    56a0:	b0 12 8c 49 	call	#0x498c	
    56a4:	c2 93 54 11 	tst.b	&0x1154	
    56a8:	03 20       	jnz	$+8      	;abs 0x56b0
    56aa:	6f 42       	mov.b	#4,	r15	;r2 As==10
    56ac:	b0 12 e8 4e 	call	#0x4ee8	
    56b0:	c2 93 54 11 	tst.b	&0x1154	
    56b4:	03 24       	jz	$+8      	;abs 0x56bc
    56b6:	f2 b2 20 00 	bit.b	#8,	&0x0020	;r2 As==11
    56ba:	0b 20       	jnz	$+24     	;abs 0x56d2
    56bc:	d2 b3 20 00 	bit.b	#1,	&0x0020	;r3 As==01
    56c0:	08 24       	jz	$+18     	;abs 0x56d2
    56c2:	5a 42 4c 12 	mov.b	&0x124c,r10	
    56c6:	4a 93       	tst.b	r10		
    56c8:	04 24       	jz	$+10     	;abs 0x56d2
    56ca:	f2 90 0b 00 50 11 	cmp.b	#11,	&0x1150	;#0x000b
    56d0:	0e 2c       	jc	$+30     	;abs 0x56ee
    56d2:	1f 42 24 11 	mov	&0x1124,r15	
    56d6:	cf 43 2d 00 	mov.b	#0,	45(r15)	;r3 As==00, 0x002d(r15)
    56da:	cf 43 31 00 	mov.b	#0,	49(r15)	;r3 As==00, 0x0031(r15)
    56de:	cf 43 30 00 	mov.b	#0,	48(r15)	;r3 As==00, 0x0030(r15)
    56e2:	cf 43 2f 00 	mov.b	#0,	47(r15)	;r3 As==00, 0x002f(r15)
    56e6:	ff 40 80 ff 2e 00 	mov.b	#-128,	46(r15)	;#0xff80, 0x002e(r15)
    56ec:	37 3c       	jmp	$+112    	;abs 0x575c
    56ee:	59 42 50 12 	mov.b	&0x1250,r9	
    56f2:	5a 93       	cmp.b	#1,	r10	;r3 As==01
    56f4:	19 20       	jnz	$+52     	;abs 0x5728
    56f6:	0f 49       	mov	r9,	r15	
    56f8:	0f 5f       	rla	r15		
    56fa:	0f 5f       	rla	r15		
    56fc:	3f 50 f8 11 	add	#4600,	r15	;#0x11f8
    5700:	28 4f       	mov	@r15,	r8	
    5702:	1c 4f 02 00 	mov	2(r15),	r12	;0x0002(r15)
    5706:	1d 42 24 11 	mov	&0x1124,r13	
    570a:	cd 48 31 00 	mov.b	r8,	49(r13)	;0x0031(r13)
    570e:	0e 4c       	mov	r12,	r14	
    5710:	0f 48       	mov	r8,	r15	
    5712:	8f 10       	swpb	r15		
    5714:	8e 10       	swpb	r14		
    5716:	4f ee       	xor.b	r14,	r15	
    5718:	0f ee       	xor	r14,	r15	
    571a:	cd 4f 30 00 	mov.b	r15,	48(r13)	;0x0030(r13)
    571e:	cd 4c 2f 00 	mov.b	r12,	47(r13)	;0x002f(r13)
    5722:	8c 10       	swpb	r12		
    5724:	cd 4c 2e 00 	mov.b	r12,	46(r13)	;0x002e(r13)
    5728:	19 53       	inc	r9		
    572a:	79 f0 07 00 	and.b	#7,	r9	;#0x0007
    572e:	c2 49 50 12 	mov.b	r9,	&0x1250	
    5732:	7a 53       	add.b	#-1,	r10	;r3 As==11
    5734:	c2 4a 4c 12 	mov.b	r10,	&0x124c	
    5738:	11 24       	jz	$+36     	;abs 0x575c
    573a:	1f 42 24 11 	mov	&0x1124,r15	
    573e:	cf 43 2d 00 	mov.b	#0,	45(r15)	;r3 As==00, 0x002d(r15)
    5742:	cf 43 31 00 	mov.b	#0,	49(r15)	;r3 As==00, 0x0031(r15)
    5746:	cf 43 30 00 	mov.b	#0,	48(r15)	;r3 As==00, 0x0030(r15)
    574a:	cf 43 2f 00 	mov.b	#0,	47(r15)	;r3 As==00, 0x002f(r15)
    574e:	ff 40 80 ff 2e 00 	mov.b	#-128,	46(r15)	;#0xff80, 0x002e(r15)
    5754:	c2 43 50 12 	mov.b	#0,	&0x1250	;r3 As==00
    5758:	c2 43 4c 12 	mov.b	#0,	&0x124c	;r3 As==00
    575c:	5f 42 50 11 	mov.b	&0x1150,r15	
    5760:	0f 5b       	add	r11,	r15	
    5762:	cf 93 00 00 	tst.b	0(r15)		;0x0000(r15)
    5766:	33 34       	jge	$+104    	;abs 0x57ce
    5768:	07 93       	tst	r7		
    576a:	31 24       	jz	$+100    	;abs 0x57ce
    576c:	5f 4b 02 00 	mov.b	2(r11),	r15	;0x0002(r11)
    5770:	8f 10       	swpb	r15		
    5772:	5f db 01 00 	bis.b	1(r11),	r15	;0x0001(r11)
    5776:	7f f0 07 00 	and.b	#7,	r15	;#0x0007
    577a:	1d 42 24 11 	mov	&0x1124,r13	
    577e:	6f 93       	cmp.b	#2,	r15	;r3 As==10
    5780:	1f 20       	jnz	$+64     	;abs 0x57c0
    5782:	1f 42 62 11 	mov	&0x1162,r15	
    5786:	0f 93       	tst	r15		
    5788:	22 24       	jz	$+70     	;abs 0x57ce
    578a:	b2 90 07 00 16 11 	cmp	#7,	&0x1116	;#0x0007
    5790:	1e 20       	jnz	$+62     	;abs 0x57ce
    5792:	df 9d 03 00 03 00 	cmp.b	3(r13),	3(r15)	;0x0003(r13), 0x0003(r15)
    5798:	1a 20       	jnz	$+54     	;abs 0x57ce
    579a:	b2 f0 ef ff 82 01 	and	#-17,	&0x0182	;#0xffef
    57a0:	6e 4d       	mov.b	@r13,	r14	
    57a2:	df 43 2c 00 	mov.b	#1,	44(r15)	;r3 As==01, 0x002c(r15)
    57a6:	0e 5d       	add	r13,	r14	
    57a8:	df 4e ff ff 28 00 	mov.b	-1(r14),40(r15)	;0xffff(r14), 0x0028(r15)
    57ae:	6e 4e       	mov.b	@r14,	r14	
    57b0:	7e f0 7f 00 	and.b	#127,	r14	;#0x007f
    57b4:	cf 4e 29 00 	mov.b	r14,	41(r15)	;0x0029(r15)
    57b8:	0f 43       	clr	r15		
    57ba:	b0 12 04 50 	call	#0x5004	
    57be:	07 3c       	jmp	$+16     	;abs 0x57ce
    57c0:	5f 93       	cmp.b	#1,	r15	;r3 As==01
    57c2:	05 20       	jnz	$+12     	;abs 0x57ce
    57c4:	7f 40 0a 00 	mov.b	#10,	r15	;#0x000a
    57c8:	b0 12 1e 49 	call	#0x491e	
    57cc:	3f 3c       	jmp	$+128    	;abs 0x584c
    57ce:	b0 12 cc 54 	call	#0x54cc	
    57d2:	3c 3c       	jmp	$+122    	;abs 0x584c
    57d4:	c2 43 5c 11 	mov.b	#0,	&0x115c	;r3 As==00
    57d8:	b0 12 8c 49 	call	#0x498c	
    57dc:	6f 42       	mov.b	#4,	r15	;r2 As==10
    57de:	b0 12 e8 4e 	call	#0x4ee8	
    57e2:	34 3c       	jmp	$+106    	;abs 0x584c
    57e4:	7f 90 3e 00 	cmp.b	#62,	r15	;#0x003e
    57e8:	31 20       	jnz	$+100    	;abs 0x584c
    57ea:	b0 12 8c 49 	call	#0x498c	
    57ee:	b2 92 16 11 	cmp	#8,	&0x1116	;r2 As==11
    57f2:	11 20       	jnz	$+36     	;abs 0x5816
    57f4:	b0 12 0a 49 	call	#0x490a	
    57f8:	7f 40 09 00 	mov.b	#9,	r15	;#0x0009
    57fc:	b0 12 bc 48 	call	#0x48bc	
    5800:	b0 12 8c 49 	call	#0x498c	
    5804:	b0 12 a0 4f 	call	#0x4fa0	
    5808:	92 43 16 11 	mov	#1,	&0x1116	;r3 As==01
    580c:	3f 40 03 00 	mov	#3,	r15	;#0x0003
    5810:	b0 12 ec 4f 	call	#0x4fec	
    5814:	1b 3c       	jmp	$+56     	;abs 0x584c
    5816:	c2 93 5e 12 	tst.b	&0x125e	
    581a:	05 20       	jnz	$+12     	;abs 0x5826
    581c:	a2 42 16 11 	mov	#4,	&0x1116	;r2 As==10
    5820:	b0 12 1e 50 	call	#0x501e	
    5824:	13 3c       	jmp	$+40     	;abs 0x584c
    5826:	b0 12 a0 4f 	call	#0x4fa0	
    582a:	b2 40 03 00 16 11 	mov	#3,	&0x1116	;#0x0003
    5830:	b0 12 14 45 	call	#0x4514	
    5834:	3e 40 36 01 	mov	#310,	r14	;#0x0136
    5838:	b0 12 18 6b 	call	#0x6b18	
    583c:	0e 4f       	mov	r15,	r14	
    583e:	3e 50 0b 00 	add	#11,	r14	;#0x000b
    5842:	82 4e 3c 11 	mov	r14,	&0x113c	
    5846:	0f 43       	clr	r15		
    5848:	b0 12 c6 4a 	call	#0x4ac6	
    584c:	37 41       	pop	r7		
    584e:	38 41       	pop	r8		
    5850:	39 41       	pop	r9		
    5852:	3a 41       	pop	r10		
    5854:	3b 41       	pop	r11		
    5856:	30 41       	ret			

00005858 <CC2420TinyosNetworkP__ActiveSend__send.isra.119>:
    5858:	0b 12       	push	r11		
    585a:	0a 12       	push	r10		
    585c:	0b 4f       	mov	r15,	r11	
    585e:	0a 42       	mov	r2,	r10	
    5860:	32 c2       	dint			
    5862:	03 43       	nop			
    5864:	b0 12 2c 46 	call	#0x462c	
    5868:	ff 40 3f 00 00 00 	mov.b	#63,	0(r15)	;#0x003f, 0x0000(r15)
    586e:	3a b2       	bit	#8,	r10	;r2 As==11
    5870:	01 24       	jz	$+4      	;abs 0x5874
    5872:	32 d2       	eint			
    5874:	82 43 56 12 	mov	#0,	&0x1256	;r3 As==00
    5878:	6f 43       	mov.b	#2,	r15	;r3 As==10
    587a:	b0 12 54 53 	call	#0x5354	
    587e:	0f 93       	tst	r15		
    5880:	6f 20       	jnz	$+224    	;abs 0x5960
    5882:	5f 42 f2 11 	mov.b	&0x11f2,r15	
    5886:	4e 4f       	mov.b	r15,	r14	
    5888:	5e 53       	inc.b	r14		
    588a:	c2 4e f2 11 	mov.b	r14,	&0x11f2	
    588e:	cb 4f 03 00 	mov.b	r15,	3(r11)	;0x0003(r11)
    5892:	0a 42       	mov	r2,	r10	
    5894:	3a f2       	and	#8,	r10	;r2 As==11
    5896:	32 c2       	dint			
    5898:	03 43       	nop			
    589a:	6f 43       	mov.b	#2,	r15	;r3 As==10
    589c:	b0 12 f0 48 	call	#0x48f0	
    58a0:	4f 93       	tst.b	r15		
    58a2:	04 20       	jnz	$+10     	;abs 0x58ac
    58a4:	0a 93       	tst	r10		
    58a6:	58 24       	jz	$+178    	;abs 0x5958
    58a8:	32 d2       	eint			
    58aa:	56 3c       	jmp	$+174    	;abs 0x5958
    58ac:	6f 42       	mov.b	#4,	r15	;r2 As==10
    58ae:	b0 12 66 4b 	call	#0x4b66	
    58b2:	82 4b ba 11 	mov	r11,	&0x11ba	
    58b6:	0a 93       	tst	r10		
    58b8:	01 24       	jz	$+4      	;abs 0x58bc
    58ba:	32 d2       	eint			
    58bc:	5f 4b 02 00 	mov.b	2(r11),	r15	;0x0002(r11)
    58c0:	8f 10       	swpb	r15		
    58c2:	5e 4b 01 00 	mov.b	1(r11),	r14	;0x0001(r11)
    58c6:	0f de       	bis	r14,	r15	
    58c8:	3f f0 20 cc 	and	#-13280,r15	;#0xcc20
    58cc:	4e 4f       	mov.b	r15,	r14	
    58ce:	3e d0 41 00 	bis	#65,	r14	;#0x0041
    58d2:	8f 10       	swpb	r15		
    58d4:	4f 4f       	mov.b	r15,	r15	
    58d6:	8f 10       	swpb	r15		
    58d8:	0e df       	bis	r15,	r14	
    58da:	cb 4e 01 00 	mov.b	r14,	1(r11)	;0x0001(r11)
    58de:	8e 10       	swpb	r14		
    58e0:	cb 4e 02 00 	mov.b	r14,	2(r11)	;0x0002(r11)
    58e4:	cb 43 2c 00 	mov.b	#0,	44(r11)	;r3 As==00, 0x002c(r11)
    58e8:	cb 43 28 00 	mov.b	#0,	40(r11)	;r3 As==00, 0x0028(r11)
    58ec:	cb 43 29 00 	mov.b	#0,	41(r11)	;r3 As==00, 0x0029(r11)
    58f0:	cb 43 31 00 	mov.b	#0,	49(r11)	;r3 As==00, 0x0031(r11)
    58f4:	cb 43 30 00 	mov.b	#0,	48(r11)	;r3 As==00, 0x0030(r11)
    58f8:	cb 43 2f 00 	mov.b	#0,	47(r11)	;r3 As==00, 0x002f(r11)
    58fc:	fb 40 80 ff 2e 00 	mov.b	#-128,	46(r11)	;#0xff80, 0x002e(r11)
    5902:	d2 43 dc 11 	mov.b	#1,	&0x11dc	;r3 As==01
    5906:	1d 42 ba 11 	mov	&0x11ba,r13	
    590a:	0f 42       	mov	r2,	r15	
    590c:	3f f2       	and	#8,	r15	;r2 As==11
    590e:	32 c2       	dint			
    5910:	03 43       	nop			
    5912:	1e 42 16 11 	mov	&0x1116,r14	
    5916:	3e 92       	cmp	#8,	r14	;r2 As==11
    5918:	02 24       	jz	$+6      	;abs 0x591e
    591a:	1e 93       	cmp	#1,	r14	;r3 As==01
    591c:	04 24       	jz	$+10     	;abs 0x5926
    591e:	0f 93       	tst	r15		
    5920:	22 24       	jz	$+70     	;abs 0x5966
    5922:	32 d2       	eint			
    5924:	20 3c       	jmp	$+66     	;abs 0x5966
    5926:	a2 43 16 11 	mov	#2,	&0x1116	;r3 As==10
    592a:	d2 43 5e 12 	mov.b	#1,	&0x125e	;r3 As==01
    592e:	82 4d 62 11 	mov	r13,	&0x1162	
    5932:	c2 43 2a 11 	mov.b	#0,	&0x112a	;r3 As==00
    5936:	0f 93       	tst	r15		
    5938:	01 24       	jz	$+4      	;abs 0x593c
    593a:	32 d2       	eint			
    593c:	7f 40 03 00 	mov.b	#3,	r15	;#0x0003
    5940:	b0 12 2c 54 	call	#0x542c	
    5944:	0f 93       	tst	r15		
    5946:	05 24       	jz	$+12     	;abs 0x5952
    5948:	7f 40 03 00 	mov.b	#3,	r15	;#0x0003
    594c:	b0 12 7a 53 	call	#0x537a	
    5950:	0a 3c       	jmp	$+22     	;abs 0x5966
    5952:	b0 12 fc 50 	call	#0x50fc	
    5956:	07 3c       	jmp	$+16     	;abs 0x5966
    5958:	b0 12 7a 49 	call	#0x497a	
    595c:	1f 43       	mov	#1,	r15	;r3 As==01
    595e:	04 3c       	jmp	$+10     	;abs 0x5968
    5960:	3f 40 05 00 	mov	#5,	r15	;#0x0005
    5964:	01 3c       	jmp	$+4      	;abs 0x5968
    5966:	0f 43       	clr	r15		
    5968:	3a 41       	pop	r10		
    596a:	3b 41       	pop	r11		
    596c:	30 41       	ret			

0000596e <CC2420ActiveMessageP__AMSend__send>:
    596e:	7c 90 1d 00 	cmp.b	#29,	r12	;#0x001d
    5972:	53 2c       	jc	$+168    	;abs 0x5a1a
    5974:	cd 4f 0b 00 	mov.b	r15,	11(r13)	;0x000b(r13)
    5978:	cd 4e 06 00 	mov.b	r14,	6(r13)	;0x0006(r13)
    597c:	8e 10       	swpb	r14		
    597e:	cd 4e 07 00 	mov.b	r14,	7(r13)	;0x0007(r13)
    5982:	0f 42       	mov	r2,	r15	
    5984:	32 c2       	dint			
    5986:	03 43       	nop			
    5988:	1e 42 5e 11 	mov	&0x115e,r14	
    598c:	3f f2       	and	#8,	r15	;r2 As==11
    598e:	01 24       	jz	$+4      	;abs 0x5992
    5990:	32 d2       	eint			
    5992:	cd 4e 04 00 	mov.b	r14,	4(r13)	;0x0004(r13)
    5996:	8e 10       	swpb	r14		
    5998:	cd 4e 05 00 	mov.b	r14,	5(r13)	;0x0005(r13)
    599c:	0f 42       	mov	r2,	r15	
    599e:	32 c2       	dint			
    59a0:	03 43       	nop			
    59a2:	1e 42 04 11 	mov	&0x1104,r14	
    59a6:	3f f2       	and	#8,	r15	;r2 As==11
    59a8:	01 24       	jz	$+4      	;abs 0x59ac
    59aa:	32 d2       	eint			
    59ac:	cd 4e 08 00 	mov.b	r14,	8(r13)	;0x0008(r13)
    59b0:	8e 10       	swpb	r14		
    59b2:	cd 4e 09 00 	mov.b	r14,	9(r13)	;0x0009(r13)
    59b6:	5f 4d 01 00 	mov.b	1(r13),	r15	;0x0001(r13)
    59ba:	3f d0 40 88 	bis	#-30656,r15	;#0x8840
    59be:	5e 4d 02 00 	mov.b	2(r13),	r14	;0x0002(r13)
    59c2:	8e 10       	swpb	r14		
    59c4:	0f de       	bis	r14,	r15	
    59c6:	cd 4f 01 00 	mov.b	r15,	1(r13)	;0x0001(r13)
    59ca:	8f 10       	swpb	r15		
    59cc:	cd 4f 02 00 	mov.b	r15,	2(r13)	;0x0002(r13)
    59d0:	4f 4c       	mov.b	r12,	r15	
    59d2:	7f 50 0d 00 	add.b	#13,	r15	;#0x000d
    59d6:	cd 4f 00 00 	mov.b	r15,	0(r13)	;0x0000(r13)
    59da:	c2 93 02 11 	tst.b	&0x1102	
    59de:	08 24       	jz	$+18     	;abs 0x59f0
    59e0:	c2 43 02 11 	mov.b	#0,	&0x1102	;r3 As==00
    59e4:	0f 4d       	mov	r13,	r15	
    59e6:	b0 12 58 58 	call	#0x5858	
    59ea:	0f 93       	tst	r15		
    59ec:	0f 20       	jnz	$+32     	;abs 0x5a0c
    59ee:	30 41       	ret			
    59f0:	c2 4c 82 11 	mov.b	r12,	&0x1182	
    59f4:	c2 43 83 11 	mov.b	#0,	&0x1183	;r3 As==00
    59f8:	82 4d 10 11 	mov	r13,	&0x1110	
    59fc:	7f 40 0d 00 	mov.b	#13,	r15	;#0x000d
    5a00:	b0 12 1e 49 	call	#0x491e	
    5a04:	c2 93 02 11 	tst.b	&0x1102	
    5a08:	0a 24       	jz	$+22     	;abs 0x5a1e
    5a0a:	03 3c       	jmp	$+8      	;abs 0x5a12
    5a0c:	f2 43 02 11 	mov.b	#-1,	&0x1102	;r3 As==11
    5a10:	30 41       	ret			
    5a12:	c2 43 68 11 	mov.b	#0,	&0x1168	;r3 As==00
    5a16:	0f 43       	clr	r15		
    5a18:	30 41       	ret			
    5a1a:	2f 43       	mov	#2,	r15	;r3 As==10
    5a1c:	30 41       	ret			
    5a1e:	3f 40 09 00 	mov	#9,	r15	;#0x0009
    5a22:	30 41       	ret			

00005a24 <AMQueueImplP__0__tryToSend>:
    5a24:	c2 43 0b 11 	mov.b	#0,	&0x110b	;r3 As==00
    5a28:	82 93 bc 11 	tst	&0x11bc	
    5a2c:	04 24       	jz	$+10     	;abs 0x5a36
    5a2e:	5f 42 54 12 	mov.b	&0x1254,r15	
    5a32:	1f f3       	and	#1,	r15	;r3 As==01
    5a34:	02 24       	jz	$+6      	;abs 0x5a3a
    5a36:	d2 43 0b 11 	mov.b	#1,	&0x110b	;r3 As==01
    5a3a:	c2 93 0b 11 	tst.b	&0x110b	
    5a3e:	14 20       	jnz	$+42     	;abs 0x5a68
    5a40:	1d 42 bc 11 	mov	&0x11bc,r13	
    5a44:	5f 4d 07 00 	mov.b	7(r13),	r15	;0x0007(r13)
    5a48:	8f 10       	swpb	r15		
    5a4a:	5e 4d 06 00 	mov.b	6(r13),	r14	;0x0006(r13)
    5a4e:	6c 4d       	mov.b	@r13,	r12	
    5a50:	7c 50 f3 ff 	add.b	#-13,	r12	;#0xfff3
    5a54:	0e df       	bis	r15,	r14	
    5a56:	5f 4d 0b 00 	mov.b	11(r13),r15	;0x000b(r13)
    5a5a:	b0 12 6e 59 	call	#0x596e	
    5a5e:	0f 93       	tst	r15		
    5a60:	03 24       	jz	$+8      	;abs 0x5a68
    5a62:	5f 43       	mov.b	#1,	r15	;r3 As==01
    5a64:	b0 12 1e 49 	call	#0x491e	
    5a68:	30 41       	ret			

00005a6a <CC2420ActiveMessageP__AMSend__sendDone.isra.123>:
    5a6a:	0b 12       	push	r11		
    5a6c:	c2 93 0b 11 	tst.b	&0x110b	
    5a70:	0d 20       	jnz	$+28     	;abs 0x5a8c
    5a72:	1b 42 bc 11 	mov	&0x11bc,r11	
    5a76:	0b 9f       	cmp	r15,	r11	
    5a78:	09 20       	jnz	$+20     	;abs 0x5a8c
    5a7a:	82 43 bc 11 	mov	#0,	&0x11bc	;r3 As==00
    5a7e:	b0 12 24 5a 	call	#0x5a24	
    5a82:	3b 90 86 11 	cmp	#4486,	r11	;#0x1186
    5a86:	02 20       	jnz	$+6      	;abs 0x5a8c
    5a88:	c2 43 84 11 	mov.b	#0,	&0x1184	;r3 As==00
    5a8c:	3b 41       	pop	r11		
    5a8e:	30 41       	ret			

00005a90 <VirtualizeTimerC__0__fireTimers>:
    5a90:	0b 12       	push	r11		
    5a92:	0a 12       	push	r10		
    5a94:	09 12       	push	r9		
    5a96:	08 12       	push	r8		
    5a98:	07 12       	push	r7		
    5a9a:	06 12       	push	r6		
    5a9c:	37 40 c0 11 	mov	#4544,	r7	;#0x11c0
    5aa0:	56 42 c8 11 	mov.b	&0x11c8,r6	
    5aa4:	66 b3       	bit.b	#2,	r6	;r3 As==10
    5aa6:	12 24       	jz	$+38     	;abs 0x5acc
    5aa8:	1a 42 c0 11 	mov	&0x11c0,r10	
    5aac:	1b 42 c2 11 	mov	&0x11c2,r11	
    5ab0:	1c 42 c4 11 	mov	&0x11c4,r12	
    5ab4:	1d 42 c6 11 	mov	&0x11c6,r13	
    5ab8:	08 4e       	mov	r14,	r8	
    5aba:	09 4f       	mov	r15,	r9	
    5abc:	08 8a       	sub	r10,	r8	
    5abe:	09 7b       	subc	r11,	r9	
    5ac0:	09 9d       	cmp	r13,	r9	
    5ac2:	04 28       	jnc	$+10     	;abs 0x5acc
    5ac4:	0d 99       	cmp	r9,	r13	
    5ac6:	19 28       	jnc	$+52     	;abs 0x5afa
    5ac8:	08 9c       	cmp	r12,	r8	
    5aca:	17 2c       	jc	$+48     	;abs 0x5afa
    5acc:	37 40 ca 11 	mov	#4554,	r7	;#0x11ca
    5ad0:	56 42 d2 11 	mov.b	&0x11d2,r6	
    5ad4:	66 b3       	bit.b	#2,	r6	;r3 As==10
    5ad6:	52 24       	jz	$+166    	;abs 0x5b7c
    5ad8:	1a 42 ca 11 	mov	&0x11ca,r10	
    5adc:	1b 42 cc 11 	mov	&0x11cc,r11	
    5ae0:	1c 42 ce 11 	mov	&0x11ce,r12	
    5ae4:	1d 42 d0 11 	mov	&0x11d0,r13	
    5ae8:	0e 8a       	sub	r10,	r14	
    5aea:	0f 7b       	subc	r11,	r15	
    5aec:	0f 9d       	cmp	r13,	r15	
    5aee:	46 28       	jnc	$+142    	;abs 0x5b7c
    5af0:	02 20       	jnz	$+6      	;abs 0x5af6
    5af2:	0e 9c       	cmp	r12,	r14	
    5af4:	43 28       	jnc	$+136    	;abs 0x5b7c
    5af6:	1f 43       	mov	#1,	r15	;r3 As==01
    5af8:	01 3c       	jmp	$+4      	;abs 0x5afc
    5afa:	0f 43       	clr	r15		
    5afc:	56 f3       	and.b	#1,	r6	;r3 As==01
    5afe:	04 24       	jz	$+10     	;abs 0x5b08
    5b00:	f7 f0 fd ff 08 00 	and.b	#-3,	8(r7)	;#0xfffd, 0x0008(r7)
    5b06:	08 3c       	jmp	$+18     	;abs 0x5b18
    5b08:	08 4a       	mov	r10,	r8	
    5b0a:	09 4b       	mov	r11,	r9	
    5b0c:	08 5c       	add	r12,	r8	
    5b0e:	09 6d       	addc	r13,	r9	
    5b10:	87 48 00 00 	mov	r8,	0(r7)	;0x0000(r7)
    5b14:	87 49 02 00 	mov	r9,	2(r7)	;0x0002(r7)
    5b18:	5f 93       	cmp.b	#1,	r15	;r3 As==01
    5b1a:	30 20       	jnz	$+98     	;abs 0x5b7c
    5b1c:	1f 42 20 11 	mov	&0x1120,r15	
    5b20:	1f 53       	inc	r15		
    5b22:	82 4f 20 11 	mov	r15,	&0x1120	
    5b26:	c2 93 84 11 	tst.b	&0x1184	
    5b2a:	28 20       	jnz	$+82     	;abs 0x5b7c
    5b2c:	c2 4f 93 11 	mov.b	r15,	&0x1193	
    5b30:	8f 10       	swpb	r15		
    5b32:	c2 4f 92 11 	mov.b	r15,	&0x1192	
    5b36:	f2 43 8c 11 	mov.b	#-1,	&0x118c	;r3 As==11
    5b3a:	f2 43 8d 11 	mov.b	#-1,	&0x118d	;r3 As==11
    5b3e:	f2 40 06 00 91 11 	mov.b	#6,	&0x1191	;#0x0006
    5b44:	82 93 bc 11 	tst	&0x11bc	
    5b48:	19 20       	jnz	$+52     	;abs 0x5b7c
    5b4a:	b2 40 86 11 bc 11 	mov	#4486,	&0x11bc	;#0x1186
    5b50:	f2 40 0f 00 86 11 	mov.b	#15,	&0x1186	;#0x000f
    5b56:	c2 93 0b 11 	tst.b	&0x110b	
    5b5a:	1b 24       	jz	$+56     	;abs 0x5b92
    5b5c:	c2 43 0b 11 	mov.b	#0,	&0x110b	;r3 As==00
    5b60:	6c 43       	mov.b	#2,	r12	;r3 As==10
    5b62:	3d 40 86 11 	mov	#4486,	r13	;#0x1186
    5b66:	3e 43       	mov	#-1,	r14	;r3 As==11
    5b68:	7f 40 06 00 	mov.b	#6,	r15	;#0x0006
    5b6c:	b0 12 6e 59 	call	#0x596e	
    5b70:	0f 93       	tst	r15		
    5b72:	0f 24       	jz	$+32     	;abs 0x5b92
    5b74:	d2 43 0b 11 	mov.b	#1,	&0x110b	;r3 As==01
    5b78:	82 43 bc 11 	mov	#0,	&0x11bc	;r3 As==00
    5b7c:	7f 40 0c 00 	mov.b	#12,	r15	;#0x000c
    5b80:	b0 12 1e 49 	call	#0x491e	
    5b84:	36 41       	pop	r6		
    5b86:	37 41       	pop	r7		
    5b88:	38 41       	pop	r8		
    5b8a:	39 41       	pop	r9		
    5b8c:	3a 41       	pop	r10		
    5b8e:	3b 41       	pop	r11		
    5b90:	30 41       	ret			
    5b92:	d2 43 84 11 	mov.b	#1,	&0x1184	;r3 As==01
    5b96:	f2 3f       	jmp	$-26     	;abs 0x5b7c

00005b98 <SchedulerBasicP__TaskBasic__runTask>:
    5b98:	0b 12       	push	r11		
    5b9a:	0a 12       	push	r10		
    5b9c:	09 12       	push	r9		
    5b9e:	08 12       	push	r8		
    5ba0:	07 12       	push	r7		
    5ba2:	31 82       	sub	#8,	r1	;r2 As==11
    5ba4:	7f 90 0e 00 	cmp.b	#14,	r15	;#0x000e
    5ba8:	02 28       	jnc	$+6      	;abs 0x5bae
    5baa:	30 40 c2 63 	br	#0x63c2	
    5bae:	4f 4f       	mov.b	r15,	r15	
    5bb0:	0f 5f       	rla	r15		
    5bb2:	10 4f a6 6c 	br	27814(r15)	;0x6ca6(r15)
    5bb6:	5d 42 54 12 	mov.b	&0x1254,r13	
    5bba:	4d 93       	tst.b	r13		
    5bbc:	02 20       	jnz	$+6      	;abs 0x5bc2
    5bbe:	30 40 c2 63 	br	#0x63c2	
    5bc2:	5b 42 84 11 	mov.b	&0x1184,r11	
    5bc6:	3e 40 bc 11 	mov	#4540,	r14	;#0x11bc
    5bca:	4c 43       	clr.b	r12		
    5bcc:	5f 43       	mov.b	#1,	r15	;r3 As==01
    5bce:	4d bf       	bit.b	r15,	r13	
    5bd0:	0a 24       	jz	$+22     	;abs 0x5be6
    5bd2:	2a 4e       	mov	@r14,	r10	
    5bd4:	8e 43 00 00 	mov	#0,	0(r14)	;r3 As==00, 0x0000(r14)
    5bd8:	4d cf       	bic.b	r15,	r13	
    5bda:	4c 93       	tst.b	r12		
    5bdc:	04 20       	jnz	$+10     	;abs 0x5be6
    5bde:	3a 90 86 11 	cmp	#4486,	r10	;#0x1186
    5be2:	01 20       	jnz	$+4      	;abs 0x5be6
    5be4:	4b 43       	clr.b	r11		
    5be6:	4f 5f       	rla.b	r15		
    5be8:	5c 53       	inc.b	r12		
    5bea:	2e 53       	incd	r14		
    5bec:	7c 92       	cmp.b	#8,	r12	;r2 As==11
    5bee:	ef 23       	jnz	$-32     	;abs 0x5bce
    5bf0:	c2 4d 54 12 	mov.b	r13,	&0x1254	
    5bf4:	c2 4b 84 11 	mov.b	r11,	&0x1184	
    5bf8:	30 40 c2 63 	br	#0x63c2	
    5bfc:	5b 42 0b 11 	mov.b	&0x110b,r11	
    5c00:	4f 4b       	mov.b	r11,	r15	
    5c02:	0f 5f       	rla	r15		
    5c04:	3f 50 bc 11 	add	#4540,	r15	;#0x11bc
    5c08:	2a 4f       	mov	@r15,	r10	
    5c0a:	8f 43 00 00 	mov	#0,	0(r15)	;r3 As==00, 0x0000(r15)
    5c0e:	b0 12 24 5a 	call	#0x5a24	
    5c12:	4b 93       	tst.b	r11		
    5c14:	02 24       	jz	$+6      	;abs 0x5c1a
    5c16:	30 40 c2 63 	br	#0x63c2	
    5c1a:	3a 90 86 11 	cmp	#4486,	r10	;#0x1186
    5c1e:	02 24       	jz	$+6      	;abs 0x5c24
    5c20:	30 40 c2 63 	br	#0x63c2	
    5c24:	c2 43 84 11 	mov.b	#0,	&0x1184	;r3 As==00
    5c28:	30 40 c2 63 	br	#0x63c2	
    5c2c:	0b 42       	mov	r2,	r11	
    5c2e:	32 c2       	dint			
    5c30:	03 43       	nop			
    5c32:	5f 43       	mov.b	#1,	r15	;r3 As==01
    5c34:	b0 12 d2 45 	call	#0x45d2	
    5c38:	92 43 16 11 	mov	#1,	&0x1116	;r3 As==01
    5c3c:	c2 43 14 11 	mov.b	#0,	&0x1114	;r3 As==00
    5c40:	c2 43 3f 11 	mov.b	#0,	&0x113f	;r3 As==00
    5c44:	c2 43 52 11 	mov.b	#0,	&0x1152	;r3 As==00
    5c48:	3b b2       	bit	#8,	r11	;r2 As==11
    5c4a:	01 24       	jz	$+4      	;abs 0x5c4e
    5c4c:	32 d2       	eint			
    5c4e:	0b 42       	mov	r2,	r11	
    5c50:	32 c2       	dint			
    5c52:	03 43       	nop			
    5c54:	b0 12 72 46 	call	#0x4672	
    5c58:	92 43 4e 11 	mov	#1,	&0x114e	;r3 As==01
    5c5c:	c2 43 5c 11 	mov.b	#0,	&0x115c	;r3 As==00
    5c60:	f2 f0 fe ff 25 00 	and.b	#-2,	&0x0025	;#0xfffe
    5c66:	f2 f0 fe ff 23 00 	and.b	#-2,	&0x0023	;#0xfffe
    5c6c:	d2 d3 24 00 	bis.b	#1,	&0x0024	;r3 As==01
    5c70:	d2 d3 25 00 	bis.b	#1,	&0x0025	;r3 As==01
    5c74:	3b b2       	bit	#8,	r11	;r2 As==11
    5c76:	01 24       	jz	$+4      	;abs 0x5c7a
    5c78:	32 d2       	eint			
    5c7a:	0b 42       	mov	r2,	r11	
    5c7c:	3b f2       	and	#8,	r11	;r2 As==11
    5c7e:	32 c2       	dint			
    5c80:	03 43       	nop			
    5c82:	a2 92 1c 11 	cmp	#4,	&0x111c	;r2 As==10
    5c86:	04 20       	jnz	$+10     	;abs 0x5c90
    5c88:	7f 40 03 00 	mov.b	#3,	r15	;#0x0003
    5c8c:	b0 12 bc 48 	call	#0x48bc	
    5c90:	0b 93       	tst	r11		
    5c92:	01 24       	jz	$+4      	;abs 0x5c96
    5c94:	32 d2       	eint			
    5c96:	0b 42       	mov	r2,	r11	
    5c98:	32 c2       	dint			
    5c9a:	03 43       	nop			
    5c9c:	b0 12 8c 49 	call	#0x498c	
    5ca0:	4f 43       	clr.b	r15		
    5ca2:	b0 12 e8 4e 	call	#0x4ee8	
    5ca6:	3b b2       	bit	#8,	r11	;r2 As==11
    5ca8:	01 24       	jz	$+4      	;abs 0x5cac
    5caa:	32 d2       	eint			
    5cac:	6f 43       	mov.b	#2,	r15	;r3 As==10
    5cae:	b0 12 66 4b 	call	#0x4b66	
    5cb2:	b0 12 78 4b 	call	#0x4b78	
    5cb6:	82 4e ca 11 	mov	r14,	&0x11ca	
    5cba:	82 4f cc 11 	mov	r15,	&0x11cc	
    5cbe:	b2 40 fa 00 ce 11 	mov	#250,	&0x11ce	;#0x00fa
    5cc4:	82 43 d0 11 	mov	#0,	&0x11d0	;r3 As==00
    5cc8:	5f 42 d2 11 	mov.b	&0x11d2,r15	
    5ccc:	7f f0 fe ff 	and.b	#-2,	r15	;#0xfffe
    5cd0:	6f d3       	bis.b	#2,	r15	;r3 As==10
    5cd2:	c2 4f d2 11 	mov.b	r15,	&0x11d2	
    5cd6:	7f 40 0c 00 	mov.b	#12,	r15	;#0x000c
    5cda:	e4 3c       	jmp	$+458    	;abs 0x5ea4
    5cdc:	4f 43       	clr.b	r15		
    5cde:	b0 12 66 4b 	call	#0x4b66	
    5ce2:	30 40 c2 63 	br	#0x63c2	
    5ce6:	0f 42       	mov	r2,	r15	
    5ce8:	32 c2       	dint			
    5cea:	03 43       	nop			
    5cec:	3f f2       	and	#8,	r15	;r2 As==11
    5cee:	01 24       	jz	$+4      	;abs 0x5cf2
    5cf0:	32 d2       	eint			
    5cf2:	7f 40 03 00 	mov.b	#3,	r15	;#0x0003
    5cf6:	b0 12 f0 48 	call	#0x48f0	
    5cfa:	4f 93       	tst.b	r15		
    5cfc:	3d 24       	jz	$+124    	;abs 0x5d78
    5cfe:	0b 42       	mov	r2,	r11	
    5d00:	32 c2       	dint			
    5d02:	03 43       	nop			
    5d04:	82 43 16 11 	mov	#0,	&0x1116	;r3 As==00
    5d08:	b2 f0 ef ff 82 01 	and	#-17,	&0x0182	;#0xffef
    5d0e:	b2 f0 ef ff 84 01 	and	#-17,	&0x0184	;#0xffef
    5d14:	f2 f0 fd ff 1f 00 	and.b	#-3,	&0x001f	;#0xfffd
    5d1a:	7f 40 03 00 	mov.b	#3,	r15	;#0x0003
    5d1e:	b0 12 e8 4e 	call	#0x4ee8	
    5d22:	b0 12 8c 49 	call	#0x498c	
    5d26:	3b b2       	bit	#8,	r11	;r2 As==11
    5d28:	01 24       	jz	$+4      	;abs 0x5d2c
    5d2a:	32 d2       	eint			
    5d2c:	0b 42       	mov	r2,	r11	
    5d2e:	32 c2       	dint			
    5d30:	03 43       	nop			
    5d32:	82 43 4e 11 	mov	#0,	&0x114e	;r3 As==00
    5d36:	b0 12 72 46 	call	#0x4672	
    5d3a:	b0 12 8c 49 	call	#0x498c	
    5d3e:	f2 f0 fe ff 25 00 	and.b	#-2,	&0x0025	;#0xfffe
    5d44:	f2 f0 fe ff 23 00 	and.b	#-2,	&0x0023	;#0xfffe
    5d4a:	3b b2       	bit	#8,	r11	;r2 As==11
    5d4c:	01 24       	jz	$+4      	;abs 0x5d50
    5d4e:	32 d2       	eint			
    5d50:	82 43 1c 11 	mov	#0,	&0x111c	;r3 As==00
    5d54:	b0 12 dc 4c 	call	#0x4cdc	
    5d58:	0f 42       	mov	r2,	r15	
    5d5a:	32 c2       	dint			
    5d5c:	03 43       	nop			
    5d5e:	f2 f0 df ff 1d 00 	and.b	#-33,	&0x001d	;#0xffdf
    5d64:	3f f2       	and	#8,	r15	;r2 As==11
    5d66:	01 24       	jz	$+4      	;abs 0x5d6a
    5d68:	32 d2       	eint			
    5d6a:	b0 12 f0 4c 	call	#0x4cf0	
    5d6e:	7f 40 03 00 	mov.b	#3,	r15	;#0x0003
    5d72:	b0 12 1e 49 	call	#0x491e	
    5d76:	03 3c       	jmp	$+8      	;abs 0x5d7e
    5d78:	6f 43       	mov.b	#2,	r15	;r3 As==10
    5d7a:	b0 12 66 4b 	call	#0x4b66	
    5d7e:	1b 42 ba 11 	mov	&0x11ba,r11	
    5d82:	b0 12 7a 49 	call	#0x497a	
    5d86:	82 93 56 12 	tst	&0x1256	
    5d8a:	02 24       	jz	$+6      	;abs 0x5d90
    5d8c:	30 40 c2 63 	br	#0x63c2	
    5d90:	f2 43 02 11 	mov.b	#-1,	&0x1102	;r3 As==11
    5d94:	0f 4b       	mov	r11,	r15	
    5d96:	30 40 9e 63 	br	#0x639e	
    5d9a:	0b 42       	mov	r2,	r11	
    5d9c:	3b f2       	and	#8,	r11	;r2 As==11
    5d9e:	32 c2       	dint			
    5da0:	03 43       	nop			
    5da2:	c2 93 5c 12 	tst.b	&0x125c	
    5da6:	5d 20       	jnz	$+188    	;abs 0x5e62
    5da8:	d2 43 5c 12 	mov.b	#1,	&0x125c	;r3 As==01
    5dac:	a2 92 1c 11 	cmp	#4,	&0x111c	;r2 As==10
    5db0:	04 20       	jnz	$+10     	;abs 0x5dba
    5db2:	5f 43       	mov.b	#1,	r15	;r3 As==01
    5db4:	b0 12 7a 53 	call	#0x537a	
    5db8:	54 3c       	jmp	$+170    	;abs 0x5e62
    5dba:	7f 40 06 00 	mov.b	#6,	r15	;#0x0006
    5dbe:	b0 12 1e 49 	call	#0x491e	
    5dc2:	4f 3c       	jmp	$+160    	;abs 0x5e62
    5dc4:	0f 42       	mov	r2,	r15	
    5dc6:	32 c2       	dint			
    5dc8:	03 43       	nop			
    5dca:	c2 43 5c 12 	mov.b	#0,	&0x125c	;r3 As==00
    5dce:	30 40 70 63 	br	#0x6370	
    5dd2:	0e 42       	mov	r2,	r14	
    5dd4:	32 c2       	dint			
    5dd6:	03 43       	nop			
    5dd8:	5f 42 0a 11 	mov.b	&0x110a,r15	
    5ddc:	3e f2       	and	#8,	r14	;r2 As==11
    5dde:	01 24       	jz	$+4      	;abs 0x5de2
    5de0:	32 d2       	eint			
    5de2:	7f 90 05 00 	cmp.b	#5,	r15	;#0x0005
    5de6:	02 28       	jnc	$+6      	;abs 0x5dec
    5de8:	30 40 c2 63 	br	#0x63c2	
    5dec:	4f 4f       	mov.b	r15,	r15	
    5dee:	0f 5f       	rla	r15		
    5df0:	10 4f c2 6c 	br	27842(r15)	;0x6cc2(r15)
    5df4:	b0 12 0a 49 	call	#0x490a	
    5df8:	0b 42       	mov	r2,	r11	
    5dfa:	3b f2       	and	#8,	r11	;r2 As==11
    5dfc:	32 c2       	dint			
    5dfe:	03 43       	nop			
    5e00:	a2 93 1c 11 	cmp	#2,	&0x111c	;r3 As==10
    5e04:	2e 20       	jnz	$+94     	;abs 0x5e62
    5e06:	b2 40 03 00 1c 11 	mov	#3,	&0x111c	;#0x0003
    5e0c:	3e 40 18 00 	mov	#24,	r14	;#0x0018
    5e10:	7f 40 1d 00 	mov.b	#29,	r15	;#0x001d
    5e14:	b0 12 b4 50 	call	#0x50b4	
    5e18:	f2 f0 ef ff 25 00 	and.b	#-17,	&0x0025	;#0xffef
    5e1e:	f2 f0 ef ff 23 00 	and.b	#-17,	&0x0023	;#0xffef
    5e24:	f2 f0 ef ff 24 00 	and.b	#-17,	&0x0024	;#0xffef
    5e2a:	f2 d0 10 00 25 00 	bis.b	#16,	&0x0025	;#0x0010
    5e30:	5f 43       	mov.b	#1,	r15	;r3 As==01
    5e32:	b0 12 bc 48 	call	#0x48bc	
    5e36:	3e 40 7f 02 	mov	#639,	r14	;#0x027f
    5e3a:	7f 40 1c 00 	mov.b	#28,	r15	;#0x001c
    5e3e:	b0 12 b4 50 	call	#0x50b4	
    5e42:	b0 12 8e 51 	call	#0x518e	
    5e46:	b0 12 bc 51 	call	#0x51bc	
    5e4a:	3e 40 56 2a 	mov	#10838,	r14	;#0x2a56
    5e4e:	7f 40 17 00 	mov.b	#23,	r15	;#0x0017
    5e52:	b0 12 b4 50 	call	#0x50b4	
    5e56:	3e 40 ff 80 	mov	#-32513,r14	;#0x80ff
    5e5a:	7f 40 15 00 	mov.b	#21,	r15	;#0x0015
    5e5e:	b0 12 b4 50 	call	#0x50b4	
    5e62:	0b 93       	tst	r11		
    5e64:	02 20       	jnz	$+6      	;abs 0x5e6a
    5e66:	30 40 c2 63 	br	#0x63c2	
    5e6a:	30 40 74 63 	br	#0x6374	
    5e6e:	b0 12 0a 49 	call	#0x490a	
    5e72:	7f 40 06 00 	mov.b	#6,	r15	;#0x0006
    5e76:	b0 12 bc 48 	call	#0x48bc	
    5e7a:	b0 12 8e 51 	call	#0x518e	
    5e7e:	b0 12 bc 51 	call	#0x51bc	
    5e82:	b0 12 8a 52 	call	#0x528a	
    5e86:	b0 12 8c 49 	call	#0x498c	
    5e8a:	b0 12 0a 49 	call	#0x490a	
    5e8e:	7f 40 03 00 	mov.b	#3,	r15	;#0x0003
    5e92:	b0 12 bc 48 	call	#0x48bc	
    5e96:	b0 12 8c 49 	call	#0x498c	
    5e9a:	5f 43       	mov.b	#1,	r15	;r3 As==01
    5e9c:	b0 12 e8 4e 	call	#0x4ee8	
    5ea0:	7f 40 06 00 	mov.b	#6,	r15	;#0x0006
    5ea4:	b0 12 1e 49 	call	#0x491e	
    5ea8:	30 40 c2 63 	br	#0x63c2	
    5eac:	b0 12 0a 49 	call	#0x490a	
    5eb0:	0b 42       	mov	r2,	r11	
    5eb2:	3b f2       	and	#8,	r11	;r2 As==11
    5eb4:	32 c2       	dint			
    5eb6:	03 43       	nop			
    5eb8:	b0 12 a4 48 	call	#0x48a4	
    5ebc:	4f 93       	tst.b	r15		
    5ebe:	04 24       	jz	$+10     	;abs 0x5ec8
    5ec0:	0b 93       	tst	r11		
    5ec2:	0f 24       	jz	$+32     	;abs 0x5ee2
    5ec4:	32 d2       	eint			
    5ec6:	0d 3c       	jmp	$+28     	;abs 0x5ee2
    5ec8:	0b 93       	tst	r11		
    5eca:	01 24       	jz	$+4      	;abs 0x5ece
    5ecc:	32 d2       	eint			
    5ece:	7f 40 53 00 	mov.b	#83,	r15	;#0x0053
    5ed2:	b0 12 6c 45 	call	#0x456c	
    5ed6:	4f 43       	clr.b	r15		
    5ed8:	b0 12 6c 45 	call	#0x456c	
    5edc:	4f 43       	clr.b	r15		
    5ede:	b0 12 6c 45 	call	#0x456c	
    5ee2:	b0 12 8c 49 	call	#0x498c	
    5ee6:	6f 43       	mov.b	#2,	r15	;r3 As==10
    5ee8:	b0 12 e8 4e 	call	#0x4ee8	
    5eec:	30 40 c2 63 	br	#0x63c2	
    5ef0:	0e 42       	mov	r2,	r14	
    5ef2:	32 c2       	dint			
    5ef4:	03 43       	nop			
    5ef6:	5f 42 16 11 	mov.b	&0x1116,r15	
    5efa:	3e f2       	and	#8,	r14	;r2 As==11
    5efc:	01 24       	jz	$+4      	;abs 0x5f00
    5efe:	32 d2       	eint			
    5f00:	6f 92       	cmp.b	#4,	r15	;r2 As==10
    5f02:	08 24       	jz	$+18     	;abs 0x5f14
    5f04:	7f 92       	cmp.b	#8,	r15	;r2 As==11
    5f06:	0a 24       	jz	$+22     	;abs 0x5f1c
    5f08:	6f 93       	cmp.b	#2,	r15	;r3 As==10
    5f0a:	20 20       	jnz	$+66     	;abs 0x5f4c
    5f0c:	b0 12 fc 50 	call	#0x50fc	
    5f10:	30 40 c2 63 	br	#0x63c2	
    5f14:	b0 12 1e 50 	call	#0x501e	
    5f18:	30 40 c2 63 	br	#0x63c2	
    5f1c:	b0 12 0a 49 	call	#0x490a	
    5f20:	7f 40 09 00 	mov.b	#9,	r15	;#0x0009
    5f24:	b0 12 bc 48 	call	#0x48bc	
    5f28:	b0 12 8c 49 	call	#0x498c	
    5f2c:	b0 12 a0 4f 	call	#0x4fa0	
    5f30:	0f 42       	mov	r2,	r15	
    5f32:	32 c2       	dint			
    5f34:	03 43       	nop			
    5f36:	92 43 16 11 	mov	#1,	&0x1116	;r3 As==01
    5f3a:	3f f2       	and	#8,	r15	;r2 As==11
    5f3c:	01 24       	jz	$+4      	;abs 0x5f40
    5f3e:	32 d2       	eint			
    5f40:	3f 40 03 00 	mov	#3,	r15	;#0x0003
    5f44:	b0 12 ec 4f 	call	#0x4fec	
    5f48:	30 40 c2 63 	br	#0x63c2	
    5f4c:	b0 12 a0 4f 	call	#0x4fa0	
    5f50:	30 40 c2 63 	br	#0x63c2	
    5f54:	b0 12 3a 4e 	call	#0x4e3a	
    5f58:	30 40 c2 63 	br	#0x63c2	
    5f5c:	0b 42       	mov	r2,	r11	
    5f5e:	32 c2       	dint			
    5f60:	03 43       	nop			
    5f62:	b0 12 44 55 	call	#0x5544	
    5f66:	30 40 6e 63 	br	#0x636e	
    5f6a:	0f 42       	mov	r2,	r15	
    5f6c:	32 c2       	dint			
    5f6e:	03 43       	nop			
    5f70:	d2 42 06 11 07 11 	mov.b	&0x1106,&0x1107	
    5f76:	f2 43 06 11 	mov.b	#-1,	&0x1106	;r3 As==11
    5f7a:	e2 42 5d 11 	mov.b	#4,	&0x115d	;r2 As==10
    5f7e:	3f f2       	and	#8,	r15	;r2 As==11
    5f80:	01 24       	jz	$+4      	;abs 0x5f84
    5f82:	32 d2       	eint			
    5f84:	c2 93 07 11 	tst.b	&0x1107	
    5f88:	02 20       	jnz	$+6      	;abs 0x5f8e
    5f8a:	b0 12 dc 52 	call	#0x52dc	
    5f8e:	c2 93 07 11 	tst.b	&0x1107	
    5f92:	02 24       	jz	$+6      	;abs 0x5f98
    5f94:	30 40 c2 63 	br	#0x63c2	
    5f98:	7f 40 07 00 	mov.b	#7,	r15	;#0x0007
    5f9c:	83 3f       	jmp	$-248    	;abs 0x5ea4
    5f9e:	1f 42 24 11 	mov	&0x1124,r15	
    5fa2:	6a 4f       	mov.b	@r15,	r10	
    5fa4:	4d 4a       	mov.b	r10,	r13	
    5fa6:	0d 5f       	add	r15,	r13	
    5fa8:	6e 4d       	mov.b	@r13,	r14	
    5faa:	4e 5e       	rla.b	r14		
    5fac:	0e 43       	clr	r14		
    5fae:	0e 6e       	rlc	r14		
    5fb0:	cf 4e 2b 00 	mov.b	r14,	43(r15)	;0x002b(r15)
    5fb4:	67 4d       	mov.b	@r13,	r7	
    5fb6:	77 f0 7f 00 	and.b	#127,	r7	;#0x007f
    5fba:	cf 47 29 00 	mov.b	r7,	41(r15)	;0x0029(r15)
    5fbe:	df 4d ff ff 28 00 	mov.b	-1(r13),40(r15)	;0xffff(r13), 0x0028(r15)
    5fc4:	5e 4f 02 00 	mov.b	2(r15),	r14	;0x0002(r15)
    5fc8:	5c 4f 01 00 	mov.b	1(r15),	r12	;0x0001(r15)
    5fcc:	0d 42       	mov	r2,	r13	
    5fce:	32 c2       	dint			
    5fd0:	03 43       	nop			
    5fd2:	5b 42 53 11 	mov.b	&0x1153,r11	
    5fd6:	3d f2       	and	#8,	r13	;r2 As==11
    5fd8:	01 24       	jz	$+4      	;abs 0x5fdc
    5fda:	32 d2       	eint			
    5fdc:	4b 93       	tst.b	r11		
    5fde:	4a 24       	jz	$+150    	;abs 0x6074
    5fe0:	4e 4e       	mov.b	r14,	r14	
    5fe2:	8e 10       	swpb	r14		
    5fe4:	4d 4c       	mov.b	r12,	r13	
    5fe6:	0e dd       	bis	r13,	r14	
    5fe8:	8e 10       	swpb	r14		
    5fea:	4e 4e       	mov.b	r14,	r14	
    5fec:	12 c3       	clrc			
    5fee:	0e 10       	rrc	r14		
    5ff0:	12 c3       	clrc			
    5ff2:	0e 10       	rrc	r14		
    5ff4:	3e f0 03 00 	and	#3,	r14	;#0x0003
    5ff8:	2e 93       	cmp	#2,	r14	;r3 As==10
    5ffa:	21 20       	jnz	$+68     	;abs 0x603e
    5ffc:	5e 4f 07 00 	mov.b	7(r15),	r14	;0x0007(r15)
    6000:	8e 10       	swpb	r14		
    6002:	5d 4f 06 00 	mov.b	6(r15),	r13	;0x0006(r15)
    6006:	0e dd       	bis	r13,	r14	
    6008:	0d 42       	mov	r2,	r13	
    600a:	32 c2       	dint			
    600c:	03 43       	nop			
    600e:	1c 42 7a 11 	mov	&0x117a,r12	
    6012:	3d f2       	and	#8,	r13	;r2 As==11
    6014:	01 24       	jz	$+4      	;abs 0x6018
    6016:	32 d2       	eint			
    6018:	0e 9c       	cmp	r12,	r14	
    601a:	0b 24       	jz	$+24     	;abs 0x6032
    601c:	5e 4f 07 00 	mov.b	7(r15),	r14	;0x0007(r15)
    6020:	8e 10       	swpb	r14		
    6022:	5f 4f 06 00 	mov.b	6(r15),	r15	;0x0006(r15)
    6026:	0e df       	bis	r15,	r14	
    6028:	1f 43       	mov	#1,	r15	;r3 As==01
    602a:	3e 93       	cmp	#-1,	r14	;r3 As==11
    602c:	03 24       	jz	$+8      	;abs 0x6034
    602e:	0f 43       	clr	r15		
    6030:	01 3c       	jmp	$+4      	;abs 0x6034
    6032:	1f 43       	mov	#1,	r15	;r3 As==01
    6034:	0f 93       	tst	r15		
    6036:	02 20       	jnz	$+6      	;abs 0x603c
    6038:	30 40 48 62 	br	#0x6248	
    603c:	1b 3c       	jmp	$+56     	;abs 0x6074
    603e:	3e 90 03 00 	cmp	#3,	r14	;#0x0003
    6042:	02 24       	jz	$+6      	;abs 0x6048
    6044:	30 40 48 62 	br	#0x6248	
    6048:	91 42 e8 11 00 00 	mov	&0x11e8,0(r1)	;0x0000(r1)
    604e:	91 42 ea 11 02 00 	mov	&0x11ea,2(r1)	;0x0002(r1)
    6054:	91 42 ec 11 04 00 	mov	&0x11ec,4(r1)	;0x0004(r1)
    605a:	91 42 ee 11 06 00 	mov	&0x11ee,6(r1)	;0x0006(r1)
    6060:	3d 42       	mov	#8,	r13	;r2 As==11
    6062:	0e 41       	mov	r1,	r14	
    6064:	3f 50 06 00 	add	#6,	r15	;#0x0006
    6068:	b0 12 20 6b 	call	#0x6b20	
    606c:	0f 93       	tst	r15		
    606e:	02 24       	jz	$+6      	;abs 0x6074
    6070:	30 40 48 62 	br	#0x6248	
    6074:	7a 90 0d 00 	cmp.b	#13,	r10	;#0x000d
    6078:	02 2c       	jc	$+6      	;abs 0x607e
    607a:	30 40 48 62 	br	#0x6248	
    607e:	1b 42 24 11 	mov	&0x1124,r11	
    6082:	5e 4b 02 00 	mov.b	2(r11),	r14	;0x0002(r11)
    6086:	8e 10       	swpb	r14		
    6088:	5f 4b 01 00 	mov.b	1(r11),	r15	;0x0001(r11)
    608c:	0e df       	bis	r15,	r14	
    608e:	0f 4e       	mov	r14,	r15	
    6090:	8f 10       	swpb	r15		
    6092:	4f 4f       	mov.b	r15,	r15	
    6094:	12 c3       	clrc			
    6096:	0f 10       	rrc	r15		
    6098:	12 c3       	clrc			
    609a:	0f 10       	rrc	r15		
    609c:	3f f0 03 00 	and	#3,	r15	;#0x0003
    60a0:	09 4b       	mov	r11,	r9	
    60a2:	39 50 06 00 	add	#6,	r9	;#0x0006
    60a6:	8e 10       	swpb	r14		
    60a8:	4e 4e       	mov.b	r14,	r14	
    60aa:	7d 40 06 00 	mov.b	#6,	r13	;#0x0006
    60ae:	12 c3       	clrc			
    60b0:	0e 10       	rrc	r14		
    60b2:	7d 53       	add.b	#-1,	r13	;r3 As==11
    60b4:	fc 23       	jnz	$-6      	;abs 0x60ae
    60b6:	3e 90 03 00 	cmp	#3,	r14	;#0x0003
    60ba:	02 24       	jz	$+6      	;abs 0x60c0
    60bc:	2e 43       	mov	#2,	r14	;r3 As==10
    60be:	01 3c       	jmp	$+4      	;abs 0x60c2
    60c0:	3e 42       	mov	#8,	r14	;r2 As==11
    60c2:	3f 90 03 00 	cmp	#3,	r15	;#0x0003
    60c6:	02 24       	jz	$+6      	;abs 0x60cc
    60c8:	2f 43       	mov	#2,	r15	;r3 As==10
    60ca:	01 3c       	jmp	$+4      	;abs 0x60ce
    60cc:	3f 42       	mov	#8,	r15	;r2 As==11
    60ce:	09 5f       	add	r15,	r9	
    60d0:	0d 43       	clr	r13		
    60d2:	0f 43       	clr	r15		
    60d4:	0c 49       	mov	r9,	r12	
    60d6:	0c 5f       	add	r15,	r12	
    60d8:	6c 4c       	mov.b	@r12,	r12	
    60da:	0d 5c       	add	r12,	r13	
    60dc:	1f 53       	inc	r15		
    60de:	0f 9e       	cmp	r14,	r15	
    60e0:	f9 3b       	jl	$-12     	;abs 0x60d4
    60e2:	58 4b 03 00 	mov.b	3(r11),	r8	;0x0003(r11)
    60e6:	f2 43 58 12 	mov.b	#-1,	&0x1258	;r3 As==11
    60ea:	0c 42       	mov	r2,	r12	
    60ec:	3c f2       	and	#8,	r12	;r2 As==11
    60ee:	32 c2       	dint			
    60f0:	03 43       	nop			
    60f2:	59 42 58 12 	mov.b	&0x1258,r9	
    60f6:	3f 40 2c 11 	mov	#4396,	r15	;#0x112c
    60fa:	0e 43       	clr	r14		
    60fc:	2d 9f       	cmp	@r15,	r13	
    60fe:	09 20       	jnz	$+20     	;abs 0x6112
    6100:	cf 98 02 00 	cmp.b	r8,	2(r15)	;0x0002(r15)
    6104:	05 20       	jnz	$+12     	;abs 0x6110
    6106:	c2 49 58 12 	mov.b	r9,	&0x1258	
    610a:	0c 93       	tst	r12		
    610c:	9b 24       	jz	$+312    	;abs 0x6244
    610e:	96 3c       	jmp	$+302    	;abs 0x623c
    6110:	49 4e       	mov.b	r14,	r9	
    6112:	1e 53       	inc	r14		
    6114:	2f 52       	add	#4,	r15	;r2 As==10
    6116:	2e 92       	cmp	#4,	r14	;r2 As==10
    6118:	f1 23       	jnz	$-28     	;abs 0x60fc
    611a:	c2 49 58 12 	mov.b	r9,	&0x1258	
    611e:	0c 93       	tst	r12		
    6120:	02 20       	jnz	$+6      	;abs 0x6126
    6122:	30 40 aa 63 	br	#0x63aa	
    6126:	32 d2       	eint			
    6128:	30 40 aa 63 	br	#0x63aa	
    612c:	c2 9f 12 11 	cmp.b	r15,	&0x1112	
    6130:	04 20       	jnz	$+10     	;abs 0x613a
    6132:	5f 42 12 11 	mov.b	&0x1112,r15	
    6136:	5c 43       	mov.b	#1,	r12	;r3 As==01
    6138:	01 3c       	jmp	$+4      	;abs 0x613c
    613a:	4c 43       	clr.b	r12		
    613c:	4f 4f       	mov.b	r15,	r15	
    613e:	0f 5f       	rla	r15		
    6140:	0f 5f       	rla	r15		
    6142:	8f 4d 2c 11 	mov	r13,	4396(r15);0x112c(r15)
    6146:	cf 48 2e 11 	mov.b	r8,	4398(r15);0x112e(r15)
    614a:	4c 93       	tst.b	r12		
    614c:	07 24       	jz	$+16     	;abs 0x615c
    614e:	5f 42 12 11 	mov.b	&0x1112,r15	
    6152:	5f 53       	inc.b	r15		
    6154:	7f f0 03 00 	and.b	#3,	r15	;#0x0003
    6158:	c2 4f 12 11 	mov.b	r15,	&0x1112	
    615c:	0e 93       	tst	r14		
    615e:	01 24       	jz	$+4      	;abs 0x6162
    6160:	32 d2       	eint			
    6162:	09 42       	mov	r2,	r9	
    6164:	32 c2       	dint			
    6166:	03 43       	nop			
    6168:	0f 4b       	mov	r11,	r15	
    616a:	b0 12 2c 46 	call	#0x462c	
    616e:	6f 4f       	mov.b	@r15,	r15	
    6170:	39 b2       	bit	#8,	r9	;r2 As==11
    6172:	01 24       	jz	$+4      	;abs 0x6176
    6174:	32 d2       	eint			
    6176:	cb 93 2b 00 	tst.b	43(r11)	;0x002b(r11)
    617a:	64 24       	jz	$+202    	;abs 0x6244
    617c:	7f 90 3f 00 	cmp.b	#63,	r15	;#0x003f
    6180:	61 20       	jnz	$+196    	;abs 0x6244
    6182:	5f 4b 07 00 	mov.b	7(r11),	r15	;0x0007(r11)
    6186:	8f 10       	swpb	r15		
    6188:	5e 4b 06 00 	mov.b	6(r11),	r14	;0x0006(r11)
    618c:	0f de       	bis	r14,	r15	
    618e:	0e 42       	mov	r2,	r14	
    6190:	32 c2       	dint			
    6192:	03 43       	nop			
    6194:	1d 42 04 11 	mov	&0x1104,r13	
    6198:	3e f2       	and	#8,	r14	;r2 As==11
    619a:	01 24       	jz	$+4      	;abs 0x619e
    619c:	32 d2       	eint			
    619e:	0f 9d       	cmp	r13,	r15	
    61a0:	0b 24       	jz	$+24     	;abs 0x61b8
    61a2:	5f 4b 07 00 	mov.b	7(r11),	r15	;0x0007(r11)
    61a6:	8f 10       	swpb	r15		
    61a8:	5e 4b 06 00 	mov.b	6(r11),	r14	;0x0006(r11)
    61ac:	0f de       	bis	r14,	r15	
    61ae:	1e 43       	mov	#1,	r14	;r3 As==01
    61b0:	3f 93       	cmp	#-1,	r15	;r3 As==11
    61b2:	03 24       	jz	$+8      	;abs 0x61ba
    61b4:	0e 43       	clr	r14		
    61b6:	01 3c       	jmp	$+4      	;abs 0x61ba
    61b8:	1e 43       	mov	#1,	r14	;r3 As==01
    61ba:	0e 93       	tst	r14		
    61bc:	43 24       	jz	$+136    	;abs 0x6244
    61be:	fb 90 06 00 0b 00 	cmp.b	#6,	11(r11)	;#0x0006, 0x000b(r11)
    61c4:	3f 20       	jnz	$+128    	;abs 0x6244
    61c6:	7a 90 0f 00 	cmp.b	#15,	r10	;#0x000f
    61ca:	3c 20       	jnz	$+122    	;abs 0x6244
    61cc:	5f 4b 0c 00 	mov.b	12(r11),r15	;0x000c(r11)
    61d0:	8f 10       	swpb	r15		
    61d2:	58 4b 0d 00 	mov.b	13(r11),r8	;0x000d(r11)
    61d6:	0f d8       	bis	r8,	r15	
    61d8:	1f f3       	and	#1,	r15	;r3 As==01
    61da:	0a 24       	jz	$+22     	;abs 0x61f0
    61dc:	0f 42       	mov	r2,	r15	
    61de:	32 c2       	dint			
    61e0:	03 43       	nop			
    61e2:	f2 f0 ef ff 31 00 	and.b	#-17,	&0x0031	;#0xffef
    61e8:	3f f2       	and	#8,	r15	;r2 As==11
    61ea:	04 24       	jz	$+10     	;abs 0x61f4
    61ec:	32 d2       	eint			
    61ee:	02 3c       	jmp	$+6      	;abs 0x61f4
    61f0:	b0 12 2a 4b 	call	#0x4b2a	
    61f4:	5f 4b 0c 00 	mov.b	12(r11),r15	;0x000c(r11)
    61f8:	8f 10       	swpb	r15		
    61fa:	5a 4b 0d 00 	mov.b	13(r11),r10	;0x000d(r11)
    61fe:	0f da       	bis	r10,	r15	
    6200:	2f f3       	and	#2,	r15	;r3 As==10
    6202:	0a 24       	jz	$+22     	;abs 0x6218
    6204:	0f 42       	mov	r2,	r15	
    6206:	32 c2       	dint			
    6208:	03 43       	nop			
    620a:	f2 f0 df ff 31 00 	and.b	#-33,	&0x0031	;#0xffdf
    6210:	3f f2       	and	#8,	r15	;r2 As==11
    6212:	04 24       	jz	$+10     	;abs 0x621c
    6214:	32 d2       	eint			
    6216:	02 3c       	jmp	$+6      	;abs 0x621c
    6218:	b0 12 3e 4b 	call	#0x4b3e	
    621c:	5f 4b 0c 00 	mov.b	12(r11),r15	;0x000c(r11)
    6220:	8f 10       	swpb	r15		
    6222:	5e 4b 0d 00 	mov.b	13(r11),r14	;0x000d(r11)
    6226:	0f de       	bis	r14,	r15	
    6228:	2f f2       	and	#4,	r15	;r2 As==10
    622a:	0a 24       	jz	$+22     	;abs 0x6240
    622c:	0f 42       	mov	r2,	r15	
    622e:	32 c2       	dint			
    6230:	03 43       	nop			
    6232:	f2 f0 bf ff 31 00 	and.b	#-65,	&0x0031	;#0xffbf
    6238:	3f f2       	and	#8,	r15	;r2 As==11
    623a:	04 24       	jz	$+10     	;abs 0x6244
    623c:	32 d2       	eint			
    623e:	02 3c       	jmp	$+6      	;abs 0x6244
    6240:	b0 12 52 4b 	call	#0x4b52	
    6244:	82 4b 24 11 	mov	r11,	&0x1124	
    6248:	0f 42       	mov	r2,	r15	
    624a:	32 c2       	dint			
    624c:	03 43       	nop			
    624e:	c2 43 5c 11 	mov.b	#0,	&0x115c	;r3 As==00
    6252:	3f f2       	and	#8,	r15	;r2 As==11
    6254:	01 24       	jz	$+4      	;abs 0x6258
    6256:	32 d2       	eint			
    6258:	b0 12 cc 54 	call	#0x54cc	
    625c:	b2 3c       	jmp	$+358    	;abs 0x63c2
    625e:	c2 93 51 11 	tst.b	&0x1151	
    6262:	28 20       	jnz	$+82     	;abs 0x62b4
    6264:	1e 42 f4 11 	mov	&0x11f4,r14	
    6268:	1f 42 f6 11 	mov	&0x11f6,r15	
    626c:	0b 42       	mov	r2,	r11	
    626e:	32 c2       	dint			
    6270:	03 43       	nop			
    6272:	1c 42 56 11 	mov	&0x1156,r12	
    6276:	1d 42 58 11 	mov	&0x1158,r13	
    627a:	1c 52 26 11 	add	&0x1126,r12	
    627e:	1d 62 28 11 	addc	&0x1128,r13	
    6282:	3b f2       	and	#8,	r11	;r2 As==11
    6284:	01 24       	jz	$+4      	;abs 0x6288
    6286:	32 d2       	eint			
    6288:	82 4e f4 11 	mov	r14,	&0x11f4	
    628c:	82 4f f6 11 	mov	r15,	&0x11f6	
    6290:	c2 43 51 11 	mov.b	#0,	&0x1151	;r3 As==00
    6294:	0b 42       	mov	r2,	r11	
    6296:	32 c2       	dint			
    6298:	03 43       	nop			
    629a:	82 4c 26 11 	mov	r12,	&0x1126	
    629e:	82 4d 28 11 	mov	r13,	&0x1128	
    62a2:	82 4e 56 11 	mov	r14,	&0x1156	
    62a6:	82 4f 58 11 	mov	r15,	&0x1158	
    62aa:	b0 12 e6 4b 	call	#0x4be6	
    62ae:	3b b2       	bit	#8,	r11	;r2 As==11
    62b0:	01 24       	jz	$+4      	;abs 0x62b4
    62b2:	32 d2       	eint			
    62b4:	b0 12 78 4b 	call	#0x4b78	
    62b8:	44 3c       	jmp	$+138    	;abs 0x6342
    62ba:	b0 12 78 4b 	call	#0x4b78	
    62be:	b2 f0 ef ff 86 01 	and	#-17,	&0x0186	;#0xffef
    62c4:	e2 b3 c8 11 	bit.b	#2,	&0x11c8	;r3 As==10
    62c8:	15 24       	jz	$+44     	;abs 0x62f4
    62ca:	0c 4e       	mov	r14,	r12	
    62cc:	0d 4f       	mov	r15,	r13	
    62ce:	1c 82 c0 11 	sub	&0x11c0,r12	
    62d2:	1d 72 c2 11 	subc	&0x11c2,r13	
    62d6:	17 42 c4 11 	mov	&0x11c4,r7	
    62da:	18 42 c6 11 	mov	&0x11c6,r8	
    62de:	07 8c       	sub	r12,	r7	
    62e0:	08 7d       	subc	r13,	r8	
    62e2:	0c 47       	mov	r7,	r12	
    62e4:	0d 48       	mov	r8,	r13	
    62e6:	37 93       	cmp	#-1,	r7	;r3 As==11
    62e8:	0a 20       	jnz	$+22     	;abs 0x62fe
    62ea:	3d 90 ff 7f 	cmp	#32767,	r13	;#0x7fff
    62ee:	07 20       	jnz	$+16     	;abs 0x62fe
    62f0:	49 43       	clr.b	r9		
    62f2:	06 3c       	jmp	$+14     	;abs 0x6300
    62f4:	49 43       	clr.b	r9		
    62f6:	3c 43       	mov	#-1,	r12	;r3 As==11
    62f8:	3d 40 ff 7f 	mov	#32767,	r13	;#0x7fff
    62fc:	01 3c       	jmp	$+4      	;abs 0x6300
    62fe:	59 43       	mov.b	#1,	r9	;r3 As==01
    6300:	e2 b3 d2 11 	bit.b	#2,	&0x11d2	;r3 As==10
    6304:	16 24       	jz	$+46     	;abs 0x6332
    6306:	0a 4e       	mov	r14,	r10	
    6308:	0b 4f       	mov	r15,	r11	
    630a:	1a 82 ca 11 	sub	&0x11ca,r10	
    630e:	1b 72 cc 11 	subc	&0x11cc,r11	
    6312:	17 42 ce 11 	mov	&0x11ce,r7	
    6316:	18 42 d0 11 	mov	&0x11d0,r8	
    631a:	07 8a       	sub	r10,	r7	
    631c:	08 7b       	subc	r11,	r8	
    631e:	0a 47       	mov	r7,	r10	
    6320:	0b 48       	mov	r8,	r11	
    6322:	0b 9d       	cmp	r13,	r11	
    6324:	03 38       	jl	$+8      	;abs 0x632c
    6326:	05 20       	jnz	$+12     	;abs 0x6332
    6328:	07 9c       	cmp	r12,	r7	
    632a:	03 2c       	jc	$+8      	;abs 0x6332
    632c:	0c 4a       	mov	r10,	r12	
    632e:	0d 4b       	mov	r11,	r13	
    6330:	02 3c       	jmp	$+6      	;abs 0x6336
    6332:	49 93       	tst.b	r9		
    6334:	46 24       	jz	$+142    	;abs 0x63c2
    6336:	0d 93       	tst	r13		
    6338:	04 38       	jl	$+10     	;abs 0x6342
    633a:	1d 93       	cmp	#1,	r13	;r3 As==01
    633c:	05 34       	jge	$+12     	;abs 0x6348
    633e:	1c 93       	cmp	#1,	r12	;r3 As==01
    6340:	03 2c       	jc	$+8      	;abs 0x6348
    6342:	b0 12 90 5a 	call	#0x5a90	
    6346:	3d 3c       	jmp	$+124    	;abs 0x63c2
    6348:	82 4c f4 11 	mov	r12,	&0x11f4	
    634c:	82 4d f6 11 	mov	r13,	&0x11f6	
    6350:	d2 43 51 11 	mov.b	#1,	&0x1151	;r3 As==01
    6354:	0b 42       	mov	r2,	r11	
    6356:	32 c2       	dint			
    6358:	03 43       	nop			
    635a:	82 4e 26 11 	mov	r14,	&0x1126	
    635e:	82 4f 28 11 	mov	r15,	&0x1128	
    6362:	82 4c 56 11 	mov	r12,	&0x1156	
    6366:	82 4d 58 11 	mov	r13,	&0x1158	
    636a:	b0 12 e6 4b 	call	#0x4be6	
    636e:	0f 4b       	mov	r11,	r15	
    6370:	3f f2       	and	#8,	r15	;r2 As==11
    6372:	27 24       	jz	$+80     	;abs 0x63c2
    6374:	32 d2       	eint			
    6376:	25 3c       	jmp	$+76     	;abs 0x63c2
    6378:	5f 42 68 11 	mov.b	&0x1168,r15	
    637c:	5f 92 02 11 	cmp.b	&0x1102,r15	
    6380:	20 24       	jz	$+66     	;abs 0x63c2
    6382:	c2 4f 02 11 	mov.b	r15,	&0x1102	
    6386:	4f 93       	tst.b	r15		
    6388:	0d 20       	jnz	$+28     	;abs 0x63a4
    638a:	1f 42 10 11 	mov	&0x1110,r15	
    638e:	b0 12 58 58 	call	#0x5858	
    6392:	4f 93       	tst.b	r15		
    6394:	16 24       	jz	$+46     	;abs 0x63c2
    6396:	f2 43 02 11 	mov.b	#-1,	&0x1102	;r3 As==11
    639a:	1f 42 10 11 	mov	&0x1110,r15	
    639e:	b0 12 6a 5a 	call	#0x5a6a	
    63a2:	0f 3c       	jmp	$+32     	;abs 0x63c2
    63a4:	f2 43 02 11 	mov.b	#-1,	&0x1102	;r3 As==11
    63a8:	0c 3c       	jmp	$+26     	;abs 0x63c2
    63aa:	5f 42 58 12 	mov.b	&0x1258,r15	
    63ae:	0e 42       	mov	r2,	r14	
    63b0:	3e f2       	and	#8,	r14	;r2 As==11
    63b2:	32 c2       	dint			
    63b4:	03 43       	nop			
    63b6:	7f 93       	cmp.b	#-1,	r15	;r3 As==11
    63b8:	02 24       	jz	$+6      	;abs 0x63be
    63ba:	30 40 2c 61 	br	#0x612c	
    63be:	30 40 32 61 	br	#0x6132	
    63c2:	31 52       	add	#8,	r1	;r2 As==11
    63c4:	37 41       	pop	r7		
    63c6:	38 41       	pop	r8		
    63c8:	39 41       	pop	r9		
    63ca:	3a 41       	pop	r10		
    63cc:	3b 41       	pop	r11		
    63ce:	30 41       	ret			

000063d0 <RealMainP__Scheduler__runNextTask>:
    63d0:	f2 93 4d 12 	cmp.b	#-1,	&0x124d	;r3 As==11
    63d4:	08 24       	jz	$+18     	;abs 0x63e6
    63d6:	b0 12 16 4d 	call	#0x4d16	
    63da:	7f 93       	cmp.b	#-1,	r15	;r3 As==11
    63dc:	06 24       	jz	$+14     	;abs 0x63ea
    63de:	b0 12 98 5b 	call	#0x5b98	
    63e2:	5f 43       	mov.b	#1,	r15	;r3 As==01
    63e4:	30 41       	ret			
    63e6:	4f 43       	clr.b	r15		
    63e8:	30 41       	ret			
    63ea:	4f 43       	clr.b	r15		
    63ec:	30 41       	ret			

000063ee <Msp430TimerP__1__Event__fired>:
    63ee:	0b 12       	push	r11		
    63f0:	0a 12       	push	r10		
    63f2:	09 12       	push	r9		
    63f4:	08 12       	push	r8		
    63f6:	07 12       	push	r7		
    63f8:	06 12       	push	r6		
    63fa:	05 12       	push	r5		
    63fc:	7f 92       	cmp.b	#8,	r15	;r2 As==11
    63fe:	02 28       	jnc	$+6      	;abs 0x6404
    6400:	30 40 9a 67 	br	#0x679a	
    6404:	4f 4f       	mov.b	r15,	r15	
    6406:	0f 5f       	rla	r15		
    6408:	10 4f cc 6c 	br	27852(r15)	;0x6ccc(r15)
    640c:	1f 42 82 01 	mov	&0x0182,r15	
    6410:	8f 10       	swpb	r15		
    6412:	5f f3       	and.b	#1,	r15	;r3 As==01
    6414:	04 24       	jz	$+10     	;abs 0x641e
    6416:	1f 42 92 01 	mov	&0x0192,r15	
    641a:	30 40 9a 67 	br	#0x679a	
    641e:	b2 f0 ef ff 82 01 	and	#-17,	&0x0182	;#0xffef
    6424:	82 93 70 11 	tst	&0x1170	
    6428:	49 20       	jnz	$+148    	;abs 0x64bc
    642a:	82 93 72 11 	tst	&0x1172	
    642e:	46 20       	jnz	$+142    	;abs 0x64bc
    6430:	1f 42 16 11 	mov	&0x1116,r15	
    6434:	3f 50 fd ff 	add	#-3,	r15	;#0xfffd
    6438:	3f 90 06 00 	cmp	#6,	r15	;#0x0006
    643c:	2f 2c       	jc	$+96     	;abs 0x649c
    643e:	0f 5f       	rla	r15		
    6440:	10 4f dc 6c 	br	27868(r15)	;0x6cdc(r15)
    6444:	f2 b0 10 00 20 00 	bit.b	#16,	&0x0020	;#0x0010
    644a:	08 24       	jz	$+18     	;abs 0x645c
    644c:	a2 42 16 11 	mov	#4,	&0x1116	;r2 As==10
    6450:	3e 40 07 00 	mov	#7,	r14	;#0x0007
    6454:	0f 43       	clr	r15		
    6456:	b0 12 c6 4a 	call	#0x4ac6	
    645a:	20 3c       	jmp	$+66     	;abs 0x649c
    645c:	b0 12 fc 4a 	call	#0x4afc	
    6460:	1d 3c       	jmp	$+60     	;abs 0x649c
    6462:	7f 40 03 00 	mov.b	#3,	r15	;#0x0003
    6466:	b0 12 2c 54 	call	#0x542c	
    646a:	0f 93       	tst	r15		
    646c:	05 24       	jz	$+12     	;abs 0x6478
    646e:	7f 40 03 00 	mov.b	#3,	r15	;#0x0003
    6472:	b0 12 7a 53 	call	#0x537a	
    6476:	12 3c       	jmp	$+38     	;abs 0x649c
    6478:	b0 12 1e 50 	call	#0x501e	
    647c:	0f 3c       	jmp	$+32     	;abs 0x649c
    647e:	0f 43       	clr	r15		
    6480:	0b 3c       	jmp	$+24     	;abs 0x6498
    6482:	7f 40 09 00 	mov.b	#9,	r15	;#0x0009
    6486:	b0 12 bc 48 	call	#0x48bc	
    648a:	5f 43       	mov.b	#1,	r15	;r3 As==01
    648c:	b0 12 d2 45 	call	#0x45d2	
    6490:	b0 12 a0 4f 	call	#0x4fa0	
    6494:	3f 40 07 00 	mov	#7,	r15	;#0x0007
    6498:	b0 12 04 50 	call	#0x5004	
    649c:	92 93 1c 11 	cmp	#1,	&0x111c	;r3 As==01
    64a0:	02 24       	jz	$+6      	;abs 0x64a6
    64a2:	30 40 9a 67 	br	#0x679a	
    64a6:	a2 43 1c 11 	mov	#2,	&0x111c	;r3 As==10
    64aa:	b0 12 dc 4c 	call	#0x4cdc	
    64ae:	b0 12 f0 4c 	call	#0x4cf0	
    64b2:	4f 43       	clr.b	r15		
    64b4:	b0 12 7a 53 	call	#0x537a	
    64b8:	30 40 9a 67 	br	#0x679a	
    64bc:	b0 12 e2 49 	call	#0x49e2	
    64c0:	30 40 9a 67 	br	#0x679a	
    64c4:	1f 42 84 01 	mov	&0x0184,r15	
    64c8:	8f 10       	swpb	r15		
    64ca:	5f f3       	and.b	#1,	r15	;r3 As==01
    64cc:	02 20       	jnz	$+6      	;abs 0x64d2
    64ce:	30 40 9a 67 	br	#0x679a	
    64d2:	18 42 94 01 	mov	&0x0194,r8	
    64d6:	b2 f0 fe ff 84 01 	and	#-2,	&0x0184	;#0xfffe
    64dc:	b2 f0 fd ff 84 01 	and	#-3,	&0x0184	;#0xfffd
    64e2:	b0 12 9e 49 	call	#0x499e	
    64e6:	0c 4e       	mov	r14,	r12	
    64e8:	0c 88       	sub	r8,	r12	
    64ea:	0d 43       	clr	r13		
    64ec:	06 4e       	mov	r14,	r6	
    64ee:	07 4f       	mov	r15,	r7	
    64f0:	06 8c       	sub	r12,	r6	
    64f2:	07 7d       	subc	r13,	r7	
    64f4:	1f 42 16 11 	mov	&0x1116,r15	
    64f8:	3f 90 05 00 	cmp	#5,	r15	;#0x0005
    64fc:	04 24       	jz	$+10     	;abs 0x6506
    64fe:	3f 90 06 00 	cmp	#6,	r15	;#0x0006
    6502:	b8 20       	jnz	$+370    	;abs 0x6674
    6504:	98 3c       	jmp	$+306    	;abs 0x6636
    6506:	b2 40 06 00 16 11 	mov	#6,	&0x1116	;#0x0006
    650c:	d2 43 5b 11 	mov.b	#1,	&0x115b	;r3 As==01
    6510:	c2 43 14 11 	mov.b	#0,	&0x1114	;r3 As==00
    6514:	6f 43       	mov.b	#2,	r15	;r3 As==10
    6516:	b0 12 d2 45 	call	#0x45d2	
    651a:	1c 42 62 11 	mov	&0x1162,r12	
    651e:	cc 46 31 00 	mov.b	r6,	49(r12)	;0x0031(r12)
    6522:	0f 46       	mov	r6,	r15	
    6524:	0d 47       	mov	r7,	r13	
    6526:	8f 10       	swpb	r15		
    6528:	8d 10       	swpb	r13		
    652a:	4f ed       	xor.b	r13,	r15	
    652c:	0f ed       	xor	r13,	r15	
    652e:	cc 4f 30 00 	mov.b	r15,	48(r12)	;0x0030(r12)
    6532:	0f 47       	mov	r7,	r15	
    6534:	cc 47 2f 00 	mov.b	r7,	47(r12)	;0x002f(r12)
    6538:	8f 10       	swpb	r15		
    653a:	cc 4f 2e 00 	mov.b	r15,	46(r12)	;0x002e(r12)
    653e:	cc 93 2d 00 	tst.b	45(r12)	;0x002d(r12)
    6542:	64 24       	jz	$+202    	;abs 0x660c
    6544:	65 4c       	mov.b	@r12,	r5	
    6546:	75 50 fb ff 	add.b	#-5,	r5	;#0xfffb
    654a:	49 45       	mov.b	r5,	r9	
    654c:	09 5c       	add	r12,	r9	
    654e:	6d 49       	mov.b	@r9,	r13	
    6550:	0a 43       	clr	r10		
    6552:	0b 43       	clr	r11		
    6554:	0b 4d       	mov	r13,	r11	
    6556:	8b 10       	swpb	r11		
    6558:	0c 43       	clr	r12		
    655a:	0d 43       	clr	r13		
    655c:	5d 49 01 00 	mov.b	1(r9),	r13	;0x0001(r9)
    6560:	0c da       	bis	r10,	r12	
    6562:	0d db       	bis	r11,	r13	
    6564:	5a 49 03 00 	mov.b	3(r9),	r10	;0x0003(r9)
    6568:	0b 43       	clr	r11		
    656a:	0c da       	bis	r10,	r12	
    656c:	0d db       	bis	r11,	r13	
    656e:	5a 49 02 00 	mov.b	2(r9),	r10	;0x0002(r9)
    6572:	4b ea       	xor.b	r10,	r11	
    6574:	0b ea       	xor	r10,	r11	
    6576:	8b 10       	swpb	r11		
    6578:	4a 4a       	mov.b	r10,	r10	
    657a:	8a 10       	swpb	r10		
    657c:	0c da       	bis	r10,	r12	
    657e:	0d db       	bis	r11,	r13	
    6580:	0c 86       	sub	r6,	r12	
    6582:	0d 77       	subc	r7,	r13	
    6584:	c9 4c 03 00 	mov.b	r12,	3(r9)	;0x0003(r9)
    6588:	0a 4d       	mov	r13,	r10	
    658a:	8c 10       	swpb	r12		
    658c:	8a 10       	swpb	r10		
    658e:	4c ea       	xor.b	r10,	r12	
    6590:	0c ea       	xor	r10,	r12	
    6592:	c9 4c 02 00 	mov.b	r12,	2(r9)	;0x0002(r9)
    6596:	0f 4d       	mov	r13,	r15	
    6598:	c9 4d 01 00 	mov.b	r13,	1(r9)	;0x0001(r9)
    659c:	8f 10       	swpb	r15		
    659e:	c9 4f 00 00 	mov.b	r15,	0(r9)	;0x0000(r9)
    65a2:	b0 12 0a 49 	call	#0x490a	
    65a6:	6c 42       	mov.b	#4,	r12	;r2 As==10
    65a8:	0d 49       	mov	r9,	r13	
    65aa:	4e 45       	mov.b	r5,	r14	
    65ac:	0f 43       	clr	r15		
    65ae:	b0 12 10 52 	call	#0x5210	
    65b2:	b0 12 8c 49 	call	#0x498c	
    65b6:	6f 49       	mov.b	@r9,	r15	
    65b8:	0c 43       	clr	r12		
    65ba:	0d 43       	clr	r13		
    65bc:	0d 4f       	mov	r15,	r13	
    65be:	8d 10       	swpb	r13		
    65c0:	0a 43       	clr	r10		
    65c2:	0b 43       	clr	r11		
    65c4:	5b 49 01 00 	mov.b	1(r9),	r11	;0x0001(r9)
    65c8:	0c da       	bis	r10,	r12	
    65ca:	0d db       	bis	r11,	r13	
    65cc:	5a 49 03 00 	mov.b	3(r9),	r10	;0x0003(r9)
    65d0:	0b 43       	clr	r11		
    65d2:	0c da       	bis	r10,	r12	
    65d4:	0d db       	bis	r11,	r13	
    65d6:	5a 49 02 00 	mov.b	2(r9),	r10	;0x0002(r9)
    65da:	4b ea       	xor.b	r10,	r11	
    65dc:	0b ea       	xor	r10,	r11	
    65de:	8b 10       	swpb	r11		
    65e0:	4a 4a       	mov.b	r10,	r10	
    65e2:	8a 10       	swpb	r10		
    65e4:	0c da       	bis	r10,	r12	
    65e6:	0d db       	bis	r11,	r13	
    65e8:	0c 56       	add	r6,	r12	
    65ea:	0d 67       	addc	r7,	r13	
    65ec:	c9 4c 03 00 	mov.b	r12,	3(r9)	;0x0003(r9)
    65f0:	0f 4c       	mov	r12,	r15	
    65f2:	0c 4d       	mov	r13,	r12	
    65f4:	8f 10       	swpb	r15		
    65f6:	8c 10       	swpb	r12		
    65f8:	4f ec       	xor.b	r12,	r15	
    65fa:	0f ec       	xor	r12,	r15	
    65fc:	c9 4f 02 00 	mov.b	r15,	2(r9)	;0x0002(r9)
    6600:	0f 4d       	mov	r13,	r15	
    6602:	c9 4d 01 00 	mov.b	r13,	1(r9)	;0x0001(r9)
    6606:	8f 10       	swpb	r15		
    6608:	c9 4f 00 00 	mov.b	r15,	0(r9)	;0x0000(r9)
    660c:	1d 42 62 11 	mov	&0x1162,r13	
    6610:	5f 4d 02 00 	mov.b	2(r13),	r15	;0x0002(r13)
    6614:	8f 10       	swpb	r15		
    6616:	5d 4d 01 00 	mov.b	1(r13),	r13	;0x0001(r13)
    661a:	0f dd       	bis	r13,	r15	
    661c:	3f f0 20 00 	and	#32,	r15	;#0x0020
    6620:	02 24       	jz	$+6      	;abs 0x6626
    6622:	d2 43 3f 11 	mov.b	#1,	&0x113f	;r3 As==01
    6626:	b0 12 a0 4f 	call	#0x4fa0	
    662a:	b2 f0 ef ff 82 01 	and	#-17,	&0x0182	;#0xffef
    6630:	e2 b3 1c 00 	bit.b	#2,	&0x001c	;r3 As==10
    6634:	b2 20       	jnz	$+358    	;abs 0x679a
    6636:	c2 43 5b 11 	mov.b	#0,	&0x115b	;r3 As==00
    663a:	5f 43       	mov.b	#1,	r15	;r3 As==01
    663c:	b0 12 d2 45 	call	#0x45d2	
    6640:	1d 42 62 11 	mov	&0x1162,r13	
    6644:	5f 4d 02 00 	mov.b	2(r13),	r15	;0x0002(r13)
    6648:	8f 10       	swpb	r15		
    664a:	5d 4d 01 00 	mov.b	1(r13),	r13	;0x0001(r13)
    664e:	0f dd       	bis	r13,	r15	
    6650:	3f f0 20 00 	and	#32,	r15	;#0x0020
    6654:	09 24       	jz	$+20     	;abs 0x6668
    6656:	b2 40 07 00 16 11 	mov	#7,	&0x1116	;#0x0007
    665c:	3e 40 00 01 	mov	#256,	r14	;#0x0100
    6660:	0f 43       	clr	r15		
    6662:	b0 12 c6 4a 	call	#0x4ac6	
    6666:	03 3c       	jmp	$+8      	;abs 0x666e
    6668:	0f 43       	clr	r15		
    666a:	b0 12 04 50 	call	#0x5004	
    666e:	e2 b3 1c 00 	bit.b	#2,	&0x001c	;r3 As==10
    6672:	93 24       	jz	$+296    	;abs 0x679a
    6674:	c2 93 14 11 	tst.b	&0x1114	
    6678:	27 20       	jnz	$+80     	;abs 0x66c8
    667a:	c2 93 5b 11 	tst.b	&0x115b	
    667e:	24 20       	jnz	$+74     	;abs 0x66c8
    6680:	d2 43 5b 11 	mov.b	#1,	&0x115b	;r3 As==01
    6684:	6f 43       	mov.b	#2,	r15	;r3 As==10
    6686:	b0 12 d2 45 	call	#0x45d2	
    668a:	5c 42 1c 00 	mov.b	&0x001c,r12	
    668e:	5d 42 4c 12 	mov.b	&0x124c,r13	
    6692:	7d 92       	cmp.b	#8,	r13	;r2 As==11
    6694:	0e 2c       	jc	$+30     	;abs 0x66b2
    6696:	4f 4d       	mov.b	r13,	r15	
    6698:	5f 52 50 12 	add.b	&0x1250,r15	
    669c:	3f f0 07 00 	and	#7,	r15	;#0x0007
    66a0:	0f 5f       	rla	r15		
    66a2:	0f 5f       	rla	r15		
    66a4:	8f 46 f8 11 	mov	r6,	4600(r15);0x11f8(r15)
    66a8:	8f 47 fa 11 	mov	r7,	4602(r15);0x11fa(r15)
    66ac:	5d 53       	inc.b	r13		
    66ae:	c2 4d 4c 12 	mov.b	r13,	&0x124c	
    66b2:	d2 43 14 11 	mov.b	#1,	&0x1114	;r3 As==01
    66b6:	82 48 80 11 	mov	r8,	&0x1180	
    66ba:	e2 b3 1c 00 	bit.b	#2,	&0x001c	;r3 As==10
    66be:	6d 20       	jnz	$+220    	;abs 0x679a
    66c0:	4e 4c       	mov.b	r12,	r14	
    66c2:	6e f3       	and.b	#2,	r14	;r3 As==10
    66c4:	5a 43       	mov.b	#1,	r10	;r3 As==01
    66c6:	01 20       	jnz	$+4      	;abs 0x66ca
    66c8:	4a 43       	clr.b	r10		
    66ca:	d2 93 5b 11 	cmp.b	#1,	&0x115b	;r3 As==01
    66ce:	65 20       	jnz	$+204    	;abs 0x679a
    66d0:	c2 43 5b 11 	mov.b	#0,	&0x115b	;r3 As==00
    66d4:	5f 43       	mov.b	#1,	r15	;r3 As==01
    66d6:	b0 12 d2 45 	call	#0x45d2	
    66da:	c2 43 14 11 	mov.b	#0,	&0x1114	;r3 As==00
    66de:	4a 93       	tst.b	r10		
    66e0:	5c 20       	jnz	$+186    	;abs 0x679a
    66e2:	0f 48       	mov	r8,	r15	
    66e4:	1f 82 80 11 	sub	&0x1180,r15	
    66e8:	3f 90 0a 00 	cmp	#10,	r15	;#0x000a
    66ec:	56 2c       	jc	$+174    	;abs 0x679a
    66ee:	5f 42 4c 12 	mov.b	&0x124c,r15	
    66f2:	4f 93       	tst.b	r15		
    66f4:	03 24       	jz	$+8      	;abs 0x66fc
    66f6:	7f 53       	add.b	#-1,	r15	;r3 As==11
    66f8:	c2 4f 4c 12 	mov.b	r15,	&0x124c	
    66fc:	1f 42 62 11 	mov	&0x1162,r15	
    6700:	0f 93       	tst	r15		
    6702:	4b 24       	jz	$+152    	;abs 0x679a
    6704:	cf 43 2d 00 	mov.b	#0,	45(r15)	;r3 As==00, 0x002d(r15)
    6708:	cf 43 31 00 	mov.b	#0,	49(r15)	;r3 As==00, 0x0031(r15)
    670c:	cf 43 30 00 	mov.b	#0,	48(r15)	;r3 As==00, 0x0030(r15)
    6710:	cf 43 2f 00 	mov.b	#0,	47(r15)	;r3 As==00, 0x002f(r15)
    6714:	ff 40 80 ff 2e 00 	mov.b	#-128,	46(r15)	;#0xff80, 0x002e(r15)
    671a:	3f 3c       	jmp	$+128    	;abs 0x679a
    671c:	1f 42 86 01 	mov	&0x0186,r15	
    6720:	8f 10       	swpb	r15		
    6722:	5f f3       	and.b	#1,	r15	;r3 As==01
    6724:	03 24       	jz	$+8      	;abs 0x672c
    6726:	1f 42 96 01 	mov	&0x0196,r15	
    672a:	37 3c       	jmp	$+112    	;abs 0x679a
    672c:	b2 f0 ef ff 86 01 	and	#-17,	&0x0186	;#0xffef
    6732:	82 93 56 11 	tst	&0x1156	
    6736:	08 20       	jnz	$+18     	;abs 0x6748
    6738:	82 93 58 11 	tst	&0x1158	
    673c:	05 20       	jnz	$+12     	;abs 0x6748
    673e:	7f 40 0b 00 	mov.b	#11,	r15	;#0x000b
    6742:	b0 12 1e 49 	call	#0x491e	
    6746:	29 3c       	jmp	$+84     	;abs 0x679a
    6748:	b0 12 e6 4b 	call	#0x4be6	
    674c:	26 3c       	jmp	$+78     	;abs 0x679a
    674e:	1f 42 88 01 	mov	&0x0188,r15	
    6752:	8f 10       	swpb	r15		
    6754:	5f f3       	and.b	#1,	r15	;r3 As==01
    6756:	21 24       	jz	$+68     	;abs 0x679a
    6758:	1f 42 98 01 	mov	&0x0198,r15	
    675c:	1e 3c       	jmp	$+62     	;abs 0x679a
    675e:	1f 42 8a 01 	mov	&0x018a,r15	
    6762:	8f 10       	swpb	r15		
    6764:	5f f3       	and.b	#1,	r15	;r3 As==01
    6766:	19 24       	jz	$+52     	;abs 0x679a
    6768:	1f 42 9a 01 	mov	&0x019a,r15	
    676c:	16 3c       	jmp	$+46     	;abs 0x679a
    676e:	1f 42 8c 01 	mov	&0x018c,r15	
    6772:	8f 10       	swpb	r15		
    6774:	5f f3       	and.b	#1,	r15	;r3 As==01
    6776:	11 24       	jz	$+36     	;abs 0x679a
    6778:	1f 42 9c 01 	mov	&0x019c,r15	
    677c:	0e 3c       	jmp	$+30     	;abs 0x679a
    677e:	1f 42 8e 01 	mov	&0x018e,r15	
    6782:	8f 10       	swpb	r15		
    6784:	5f f3       	and.b	#1,	r15	;r3 As==01
    6786:	09 24       	jz	$+20     	;abs 0x679a
    6788:	1f 42 9e 01 	mov	&0x019e,r15	
    678c:	06 3c       	jmp	$+14     	;abs 0x679a
    678e:	92 53 6a 11 	inc	&0x116a	
    6792:	82 63 6c 11 	adc	&0x116c	
    6796:	92 53 be 11 	inc	&0x11be	
    679a:	35 41       	pop	r5		
    679c:	36 41       	pop	r6		
    679e:	37 41       	pop	r7		
    67a0:	38 41       	pop	r8		
    67a2:	39 41       	pop	r9		
    67a4:	3a 41       	pop	r10		
    67a6:	3b 41       	pop	r11		
    67a8:	30 41       	ret			

000067aa <__nesc_atomic_start>:
    67aa:	0f 42       	mov	r2,	r15	
    67ac:	32 c2       	dint			
    67ae:	03 43       	nop			
    67b0:	3f f2       	and	#8,	r15	;r2 As==11
    67b2:	30 41       	ret			

000067b4 <__nesc_atomic_end>:
    67b4:	0f 93       	tst	r15		
    67b6:	01 24       	jz	$+4      	;abs 0x67ba
    67b8:	32 d2       	eint			
    67ba:	30 41       	ret			

000067bc <sig_TIMERA0_VECTOR>:
    67bc:	0f 12       	push	r15		
    67be:	0e 12       	push	r14		
    67c0:	0d 12       	push	r13		
    67c2:	0c 12       	push	r12		
    67c4:	4f 43       	clr.b	r15		
    67c6:	b0 12 34 4d 	call	#0x4d34	
    67ca:	3c 41       	pop	r12		
    67cc:	3d 41       	pop	r13		
    67ce:	3e 41       	pop	r14		
    67d0:	3f 41       	pop	r15		
    67d2:	b1 c0 f0 00 00 00 	bic	#240,	0(r1)	;#0x00f0, 0x0000(r1)
    67d8:	00 13       	reti			

000067da <sig_TIMERA1_VECTOR>:
    67da:	0f 12       	push	r15		
    67dc:	0e 12       	push	r14		
    67de:	0d 12       	push	r13		
    67e0:	0c 12       	push	r12		
    67e2:	1f 42 2e 01 	mov	&0x012e,r15	
    67e6:	4f 4f       	mov.b	r15,	r15	
    67e8:	12 c3       	clrc			
    67ea:	4f 10       	rrc.b	r15		
    67ec:	b0 12 34 4d 	call	#0x4d34	
    67f0:	3c 41       	pop	r12		
    67f2:	3d 41       	pop	r13		
    67f4:	3e 41       	pop	r14		
    67f6:	3f 41       	pop	r15		
    67f8:	b1 c0 f0 00 00 00 	bic	#240,	0(r1)	;#0x00f0, 0x0000(r1)
    67fe:	00 13       	reti			

00006800 <sig_TIMERB0_VECTOR>:
    6800:	0f 12       	push	r15		
    6802:	0e 12       	push	r14		
    6804:	0d 12       	push	r13		
    6806:	0c 12       	push	r12		
    6808:	4f 43       	clr.b	r15		
    680a:	b0 12 ee 63 	call	#0x63ee	
    680e:	3c 41       	pop	r12		
    6810:	3d 41       	pop	r13		
    6812:	3e 41       	pop	r14		
    6814:	3f 41       	pop	r15		
    6816:	b1 c0 f0 00 00 00 	bic	#240,	0(r1)	;#0x00f0, 0x0000(r1)
    681c:	00 13       	reti			

0000681e <sig_TIMERB1_VECTOR>:
    681e:	0f 12       	push	r15		
    6820:	0e 12       	push	r14		
    6822:	0d 12       	push	r13		
    6824:	0c 12       	push	r12		
    6826:	1f 42 1e 01 	mov	&0x011e,r15	
    682a:	4f 4f       	mov.b	r15,	r15	
    682c:	12 c3       	clrc			
    682e:	4f 10       	rrc.b	r15		
    6830:	b0 12 ee 63 	call	#0x63ee	
    6834:	3c 41       	pop	r12		
    6836:	3d 41       	pop	r13		
    6838:	3e 41       	pop	r14		
    683a:	3f 41       	pop	r15		
    683c:	b1 c0 f0 00 00 00 	bic	#240,	0(r1)	;#0x00f0, 0x0000(r1)
    6842:	00 13       	reti			

00006844 <sig_PORT1_VECTOR>:
    6844:	0f 12       	push	r15		
    6846:	0e 12       	push	r14		
    6848:	0d 12       	push	r13		
    684a:	0c 12       	push	r12		
    684c:	21 83       	decd	r1		
    684e:	5e 42 23 00 	mov.b	&0x0023,r14	
    6852:	5f 42 25 00 	mov.b	&0x0025,r15	
    6856:	4f fe       	and.b	r14,	r15	
    6858:	c1 4f 00 00 	mov.b	r15,	0(r1)	;0x0000(r1)
    685c:	6f 41       	mov.b	@r1,	r15	
    685e:	1f f3       	and	#1,	r15	;r3 As==01
    6860:	0e 24       	jz	$+30     	;abs 0x687e
    6862:	f2 f0 fe ff 23 00 	and.b	#-2,	&0x0023	;#0xfffe
    6868:	92 93 4e 11 	cmp	#1,	&0x114e	;r3 As==01
    686c:	05 20       	jnz	$+12     	;abs 0x6878
    686e:	a2 43 4e 11 	mov	#2,	&0x114e	;r3 As==10
    6872:	b0 12 a6 54 	call	#0x54a6	
    6876:	54 3c       	jmp	$+170    	;abs 0x6920
    6878:	d2 53 54 11 	inc.b	&0x1154	
    687c:	51 3c       	jmp	$+164    	;abs 0x6920
    687e:	6f 41       	mov.b	@r1,	r15	
    6880:	2f f3       	and	#2,	r15	;r3 As==10
    6882:	05 24       	jz	$+12     	;abs 0x688e
    6884:	5f 42 23 00 	mov.b	&0x0023,r15	
    6888:	7f f0 fd ff 	and.b	#-3,	r15	;#0xfffd
    688c:	47 3c       	jmp	$+144    	;abs 0x691c
    688e:	6f 41       	mov.b	@r1,	r15	
    6890:	2f f2       	and	#4,	r15	;r2 As==10
    6892:	05 24       	jz	$+12     	;abs 0x689e
    6894:	5f 42 23 00 	mov.b	&0x0023,r15	
    6898:	7f f0 fb ff 	and.b	#-5,	r15	;#0xfffb
    689c:	3f 3c       	jmp	$+128    	;abs 0x691c
    689e:	6f 41       	mov.b	@r1,	r15	
    68a0:	3f f2       	and	#8,	r15	;r2 As==11
    68a2:	05 24       	jz	$+12     	;abs 0x68ae
    68a4:	5f 42 23 00 	mov.b	&0x0023,r15	
    68a8:	7f f0 f7 ff 	and.b	#-9,	r15	;#0xfff7
    68ac:	37 3c       	jmp	$+112    	;abs 0x691c
    68ae:	6f 41       	mov.b	@r1,	r15	
    68b0:	3f f0 10 00 	and	#16,	r15	;#0x0010
    68b4:	1a 24       	jz	$+54     	;abs 0x68ea
    68b6:	f2 f0 ef ff 23 00 	and.b	#-17,	&0x0023	;#0xffef
    68bc:	a2 42 1c 11 	mov	#4,	&0x111c	;r2 As==10
    68c0:	f2 f0 ef ff 25 00 	and.b	#-17,	&0x0025	;#0xffef
    68c6:	f2 f0 ef ff 23 00 	and.b	#-17,	&0x0023	;#0xffef
    68cc:	0e 43       	clr	r14		
    68ce:	7f 40 1d 00 	mov.b	#29,	r15	;#0x001d
    68d2:	b0 12 b4 50 	call	#0x50b4	
    68d6:	b0 12 8a 52 	call	#0x528a	
    68da:	b0 12 8c 49 	call	#0x498c	
    68de:	b0 12 0a 49 	call	#0x490a	
    68e2:	6f 43       	mov.b	#2,	r15	;r3 As==10
    68e4:	b0 12 1e 49 	call	#0x491e	
    68e8:	1b 3c       	jmp	$+56     	;abs 0x6920
    68ea:	6f 41       	mov.b	@r1,	r15	
    68ec:	3f f0 20 00 	and	#32,	r15	;#0x0020
    68f0:	05 24       	jz	$+12     	;abs 0x68fc
    68f2:	5f 42 23 00 	mov.b	&0x0023,r15	
    68f6:	7f f0 df ff 	and.b	#-33,	r15	;#0xffdf
    68fa:	10 3c       	jmp	$+34     	;abs 0x691c
    68fc:	6f 41       	mov.b	@r1,	r15	
    68fe:	3f f0 40 00 	and	#64,	r15	;#0x0040
    6902:	05 24       	jz	$+12     	;abs 0x690e
    6904:	5f 42 23 00 	mov.b	&0x0023,r15	
    6908:	7f f0 bf ff 	and.b	#-65,	r15	;#0xffbf
    690c:	07 3c       	jmp	$+16     	;abs 0x691c
    690e:	6f 41       	mov.b	@r1,	r15	
    6910:	4f 93       	tst.b	r15		
    6912:	06 34       	jge	$+14     	;abs 0x6920
    6914:	5f 42 23 00 	mov.b	&0x0023,r15	
    6918:	7f f0 7f 00 	and.b	#127,	r15	;#0x007f
    691c:	c2 4f 23 00 	mov.b	r15,	&0x0023	
    6920:	21 53       	incd	r1		
    6922:	3c 41       	pop	r12		
    6924:	3d 41       	pop	r13		
    6926:	3e 41       	pop	r14		
    6928:	3f 41       	pop	r15		
    692a:	b1 c0 f0 00 00 00 	bic	#240,	0(r1)	;#0x00f0, 0x0000(r1)
    6930:	00 13       	reti			

00006932 <sig_PORT2_VECTOR>:
    6932:	0f 12       	push	r15		
    6934:	0e 12       	push	r14		
    6936:	21 83       	decd	r1		
    6938:	5e 42 2b 00 	mov.b	&0x002b,r14	
    693c:	5f 42 2d 00 	mov.b	&0x002d,r15	
    6940:	4f fe       	and.b	r14,	r15	
    6942:	c1 4f 00 00 	mov.b	r15,	0(r1)	;0x0000(r1)
    6946:	6f 41       	mov.b	@r1,	r15	
    6948:	1f f3       	and	#1,	r15	;r3 As==01
    694a:	05 24       	jz	$+12     	;abs 0x6956
    694c:	5f 42 2b 00 	mov.b	&0x002b,r15	
    6950:	7f f0 fe ff 	and.b	#-2,	r15	;#0xfffe
    6954:	3a 3c       	jmp	$+118    	;abs 0x69ca
    6956:	6f 41       	mov.b	@r1,	r15	
    6958:	2f f3       	and	#2,	r15	;r3 As==10
    695a:	05 24       	jz	$+12     	;abs 0x6966
    695c:	5f 42 2b 00 	mov.b	&0x002b,r15	
    6960:	7f f0 fd ff 	and.b	#-3,	r15	;#0xfffd
    6964:	32 3c       	jmp	$+102    	;abs 0x69ca
    6966:	6f 41       	mov.b	@r1,	r15	
    6968:	2f f2       	and	#4,	r15	;r2 As==10
    696a:	05 24       	jz	$+12     	;abs 0x6976
    696c:	5f 42 2b 00 	mov.b	&0x002b,r15	
    6970:	7f f0 fb ff 	and.b	#-5,	r15	;#0xfffb
    6974:	2a 3c       	jmp	$+86     	;abs 0x69ca
    6976:	6f 41       	mov.b	@r1,	r15	
    6978:	3f f2       	and	#8,	r15	;r2 As==11
    697a:	05 24       	jz	$+12     	;abs 0x6986
    697c:	5f 42 2b 00 	mov.b	&0x002b,r15	
    6980:	7f f0 f7 ff 	and.b	#-9,	r15	;#0xfff7
    6984:	22 3c       	jmp	$+70     	;abs 0x69ca
    6986:	6f 41       	mov.b	@r1,	r15	
    6988:	3f f0 10 00 	and	#16,	r15	;#0x0010
    698c:	05 24       	jz	$+12     	;abs 0x6998
    698e:	5f 42 2b 00 	mov.b	&0x002b,r15	
    6992:	7f f0 ef ff 	and.b	#-17,	r15	;#0xffef
    6996:	19 3c       	jmp	$+52     	;abs 0x69ca
    6998:	6f 41       	mov.b	@r1,	r15	
    699a:	3f f0 20 00 	and	#32,	r15	;#0x0020
    699e:	05 24       	jz	$+12     	;abs 0x69aa
    69a0:	5f 42 2b 00 	mov.b	&0x002b,r15	
    69a4:	7f f0 df ff 	and.b	#-33,	r15	;#0xffdf
    69a8:	10 3c       	jmp	$+34     	;abs 0x69ca
    69aa:	6f 41       	mov.b	@r1,	r15	
    69ac:	3f f0 40 00 	and	#64,	r15	;#0x0040
    69b0:	05 24       	jz	$+12     	;abs 0x69bc
    69b2:	5f 42 2b 00 	mov.b	&0x002b,r15	
    69b6:	7f f0 bf ff 	and.b	#-65,	r15	;#0xffbf
    69ba:	07 3c       	jmp	$+16     	;abs 0x69ca
    69bc:	6f 41       	mov.b	@r1,	r15	
    69be:	4f 93       	tst.b	r15		
    69c0:	06 34       	jge	$+14     	;abs 0x69ce
    69c2:	5f 42 2b 00 	mov.b	&0x002b,r15	
    69c6:	7f f0 7f 00 	and.b	#127,	r15	;#0x007f
    69ca:	c2 4f 2b 00 	mov.b	r15,	&0x002b	
    69ce:	21 53       	incd	r1		
    69d0:	3e 41       	pop	r14		
    69d2:	3f 41       	pop	r15		
    69d4:	b1 c0 f0 00 00 00 	bic	#240,	0(r1)	;#0x00f0, 0x0000(r1)
    69da:	00 13       	reti			

000069dc <sig_UART0RX_VECTOR>:
    69dc:	0f 12       	push	r15		
    69de:	0e 12       	push	r14		
    69e0:	0d 12       	push	r13		
    69e2:	0c 12       	push	r12		
    69e4:	5e 42 76 00 	mov.b	&0x0076,r14	
    69e8:	c2 93 5d 11 	tst.b	&0x115d	
    69ec:	19 24       	jz	$+52     	;abs 0x6a20
    69ee:	15 3c       	jmp	$+44     	;abs 0x6a1a
    69f0:	1f 42 d4 11 	mov	&0x11d4,r15	
    69f4:	0f 93       	tst	r15		
    69f6:	04 24       	jz	$+10     	;abs 0x6a00
    69f8:	1f 52 4e 12 	add	&0x124e,r15	
    69fc:	cf 4e ff ff 	mov.b	r14,	-1(r15)	;0xffff(r15)
    6a00:	92 92 52 12 4e 12 	cmp	&0x1252,&0x124e	
    6a06:	03 2c       	jc	$+8      	;abs 0x6a0e
    6a08:	b0 12 22 48 	call	#0x4822	
    6a0c:	09 3c       	jmp	$+20     	;abs 0x6a20
    6a0e:	f2 f0 bf ff 00 00 	and.b	#-65,	&0x0000	;#0xffbf
    6a14:	b0 12 44 55 	call	#0x5544	
    6a18:	03 3c       	jmp	$+8      	;abs 0x6a20
    6a1a:	c2 93 07 11 	tst.b	&0x1107	
    6a1e:	e8 27       	jz	$-46     	;abs 0x69f0
    6a20:	3c 41       	pop	r12		
    6a22:	3d 41       	pop	r13		
    6a24:	3e 41       	pop	r14		
    6a26:	3f 41       	pop	r15		
    6a28:	b1 c0 f0 00 00 00 	bic	#240,	0(r1)	;#0x00f0, 0x0000(r1)
    6a2e:	00 13       	reti			

00006a30 <sig_UART0TX_VECTOR>:
    6a30:	0f 12       	push	r15		
    6a32:	5f 42 70 00 	mov.b	&0x0070,r15	
    6a36:	3f f0 20 00 	and	#32,	r15	;#0x0020
    6a3a:	06 24       	jz	$+14     	;abs 0x6a48
    6a3c:	5f 42 70 00 	mov.b	&0x0070,r15	
    6a40:	2f f2       	and	#4,	r15	;r2 As==10
    6a42:	02 24       	jz	$+6      	;abs 0x6a48
    6a44:	5f 42 70 00 	mov.b	&0x0070,r15	
    6a48:	3f 41       	pop	r15		
    6a4a:	b1 c0 f0 00 00 00 	bic	#240,	0(r1)	;#0x00f0, 0x0000(r1)
    6a50:	00 13       	reti			

00006a52 <__umulsidi3>:
    6a52:	0b 12       	push	r11		
    6a54:	0a 12       	push	r10		
    6a56:	09 12       	push	r9		
    6a58:	08 12       	push	r8		
    6a5a:	07 12       	push	r7		
    6a5c:	06 12       	push	r6		
    6a5e:	05 12       	push	r5		
    6a60:	04 12       	push	r4		
    6a62:	08 4c       	mov	r12,	r8	
    6a64:	09 4d       	mov	r13,	r9	
    6a66:	0a 43       	clr	r10		
    6a68:	0b 43       	clr	r11		
    6a6a:	0c 4e       	mov	r14,	r12	
    6a6c:	0d 4f       	mov	r15,	r13	
    6a6e:	0e 43       	clr	r14		
    6a70:	0f 43       	clr	r15		
    6a72:	b0 12 be 6a 	call	#0x6abe	
    6a76:	34 41       	pop	r4		
    6a78:	35 41       	pop	r5		
    6a7a:	36 41       	pop	r6		
    6a7c:	37 41       	pop	r7		
    6a7e:	38 41       	pop	r8		
    6a80:	39 41       	pop	r9		
    6a82:	3a 41       	pop	r10		
    6a84:	3b 41       	pop	r11		
    6a86:	30 41       	ret			

00006a88 <__muldi3>:
    6a88:	0b 12       	push	r11		
    6a8a:	0a 12       	push	r10		
    6a8c:	09 12       	push	r9		
    6a8e:	08 12       	push	r8		
    6a90:	07 12       	push	r7		
    6a92:	06 12       	push	r6		
    6a94:	05 12       	push	r5		
    6a96:	04 12       	push	r4		
    6a98:	18 41 12 00 	mov	18(r1),	r8	;0x0012(r1)
    6a9c:	19 41 14 00 	mov	20(r1),	r9	;0x0014(r1)
    6aa0:	1a 41 16 00 	mov	22(r1),	r10	;0x0016(r1)
    6aa4:	1b 41 18 00 	mov	24(r1),	r11	;0x0018(r1)
    6aa8:	b0 12 be 6a 	call	#0x6abe	
    6aac:	34 41       	pop	r4		
    6aae:	35 41       	pop	r5		
    6ab0:	36 41       	pop	r6		
    6ab2:	37 41       	pop	r7		
    6ab4:	38 41       	pop	r8		
    6ab6:	39 41       	pop	r9		
    6ab8:	3a 41       	pop	r10		
    6aba:	3b 41       	pop	r11		
    6abc:	30 41       	ret			

00006abe <__xabi_muldi3>:
    6abe:	04 43       	clr	r4		
    6ac0:	05 43       	clr	r5		
    6ac2:	06 43       	clr	r6		
    6ac4:	07 43       	clr	r7		
    6ac6:	0e 3c       	jmp	$+30     	;abs 0x6ae4
    6ac8:	12 c3       	clrc			
    6aca:	0b 10       	rrc	r11		
    6acc:	0a 10       	rrc	r10		
    6ace:	09 10       	rrc	r9		
    6ad0:	08 10       	rrc	r8		
    6ad2:	04 28       	jnc	$+10     	;abs 0x6adc
    6ad4:	04 5c       	add	r12,	r4	
    6ad6:	05 6d       	addc	r13,	r5	
    6ad8:	06 6e       	addc	r14,	r6	
    6ada:	07 6f       	addc	r15,	r7	
    6adc:	0c 5c       	rla	r12		
    6ade:	0d 6d       	rlc	r13		
    6ae0:	0e 6e       	rlc	r14		
    6ae2:	0f 6f       	rlc	r15		
    6ae4:	08 93       	tst	r8		
    6ae6:	f0 23       	jnz	$-30     	;abs 0x6ac8
    6ae8:	09 93       	tst	r9		
    6aea:	ee 23       	jnz	$-34     	;abs 0x6ac8
    6aec:	0a 93       	tst	r10		
    6aee:	ec 23       	jnz	$-38     	;abs 0x6ac8
    6af0:	0b 93       	tst	r11		
    6af2:	ea 23       	jnz	$-42     	;abs 0x6ac8
    6af4:	0c 44       	mov	r4,	r12	
    6af6:	0d 45       	mov	r5,	r13	
    6af8:	0e 46       	mov	r6,	r14	
    6afa:	0f 47       	mov	r7,	r15	
    6afc:	30 41       	ret			

00006afe <__udivhi3>:
    6afe:	7c 40 10 00 	mov.b	#16,	r12	;#0x0010
    6b02:	0d 4e       	mov	r14,	r13	
    6b04:	0e 43       	clr	r14		
    6b06:	0f 5f       	rla	r15		
    6b08:	0e 6e       	rlc	r14		
    6b0a:	0e 9d       	cmp	r13,	r14	
    6b0c:	02 28       	jnc	$+6      	;abs 0x6b12
    6b0e:	0e 8d       	sub	r13,	r14	
    6b10:	1f d3       	bis	#1,	r15	;r3 As==01
    6b12:	1c 83       	dec	r12		
    6b14:	f8 23       	jnz	$-14     	;abs 0x6b06
    6b16:	30 41       	ret			

00006b18 <__umodhi3>:
    6b18:	b0 12 fe 6a 	call	#0x6afe	
    6b1c:	0f 4e       	mov	r14,	r15	
    6b1e:	30 41       	ret			

00006b20 <memcmp>:
    6b20:	0b 12       	push	r11		
    6b22:	0d 93       	tst	r13		
    6b24:	0a 24       	jz	$+22     	;abs 0x6b3a
    6b26:	7b 4f       	mov.b	@r15+,	r11	
    6b28:	7c 4e       	mov.b	@r14+,	r12	
    6b2a:	4b 9c       	cmp.b	r12,	r11	
    6b2c:	04 24       	jz	$+10     	;abs 0x6b36
    6b2e:	4f 4b       	mov.b	r11,	r15	
    6b30:	4e 4c       	mov.b	r12,	r14	
    6b32:	0f 8e       	sub	r14,	r15	
    6b34:	03 3c       	jmp	$+8      	;abs 0x6b3c
    6b36:	3d 53       	add	#-1,	r13	;r3 As==11
    6b38:	f4 3f       	jmp	$-22     	;abs 0x6b22
    6b3a:	0f 43       	clr	r15		
    6b3c:	3b 41       	pop	r11		
    6b3e:	30 41       	ret			

00006b40 <memcpy>:
    6b40:	0b 12       	push	r11		
    6b42:	0a 12       	push	r10		
    6b44:	09 12       	push	r9		
    6b46:	08 12       	push	r8		
    6b48:	07 12       	push	r7		
    6b4a:	0d 93       	tst	r13		
    6b4c:	70 24       	jz	$+226    	;abs 0x6c2e
    6b4e:	0f 9e       	cmp	r14,	r15	
    6b50:	6e 24       	jz	$+222    	;abs 0x6c2e
    6b52:	34 2c       	jc	$+106    	;abs 0x6bbc
    6b54:	0c 4e       	mov	r14,	r12	
    6b56:	0c df       	bis	r15,	r12	
    6b58:	1c f3       	and	#1,	r12	;r3 As==01
    6b5a:	1b 24       	jz	$+56     	;abs 0x6b92
    6b5c:	0c 4e       	mov	r14,	r12	
    6b5e:	0c ef       	xor	r15,	r12	
    6b60:	1c f3       	and	#1,	r12	;r3 As==01
    6b62:	07 20       	jnz	$+16     	;abs 0x6b72
    6b64:	2d 93       	cmp	#2,	r13	;r3 As==10
    6b66:	07 28       	jnc	$+16     	;abs 0x6b76
    6b68:	0b 4e       	mov	r14,	r11	
    6b6a:	1b f3       	and	#1,	r11	;r3 As==01
    6b6c:	2c 43       	mov	#2,	r12	;r3 As==10
    6b6e:	0c 8b       	sub	r11,	r12	
    6b70:	03 3c       	jmp	$+8      	;abs 0x6b78
    6b72:	0c 4d       	mov	r13,	r12	
    6b74:	01 3c       	jmp	$+4      	;abs 0x6b78
    6b76:	1c 43       	mov	#1,	r12	;r3 As==01
    6b78:	0d 8c       	sub	r12,	r13	
    6b7a:	0a 4c       	mov	r12,	r10	
    6b7c:	09 4e       	mov	r14,	r9	
    6b7e:	0b 4f       	mov	r15,	r11	
    6b80:	fb 49 00 00 	mov.b	@r9+,	0(r11)	;0x0000(r11)
    6b84:	1b 53       	inc	r11		
    6b86:	3a 53       	add	#-1,	r10	;r3 As==11
    6b88:	fb 23       	jnz	$-8      	;abs 0x6b80
    6b8a:	0a 4f       	mov	r15,	r10	
    6b8c:	0a 5c       	add	r12,	r10	
    6b8e:	0e 5c       	add	r12,	r14	
    6b90:	01 3c       	jmp	$+4      	;abs 0x6b94
    6b92:	0a 4f       	mov	r15,	r10	
    6b94:	0b 4d       	mov	r13,	r11	
    6b96:	12 c3       	clrc			
    6b98:	0b 10       	rrc	r11		
    6b9a:	0b 24       	jz	$+24     	;abs 0x6bb2
    6b9c:	09 4b       	mov	r11,	r9	
    6b9e:	08 4e       	mov	r14,	r8	
    6ba0:	0c 4a       	mov	r10,	r12	
    6ba2:	bc 48 00 00 	mov	@r8+,	0(r12)	;0x0000(r12)
    6ba6:	2c 53       	incd	r12		
    6ba8:	39 53       	add	#-1,	r9	;r3 As==11
    6baa:	fb 23       	jnz	$-8      	;abs 0x6ba2
    6bac:	0b 5b       	rla	r11		
    6bae:	0e 5b       	add	r11,	r14	
    6bb0:	0a 5b       	add	r11,	r10	
    6bb2:	1d f3       	and	#1,	r13	;r3 As==01
    6bb4:	3c 24       	jz	$+122    	;abs 0x6c2e
    6bb6:	ea 4e 00 00 	mov.b	@r14,	0(r10)	;0x0000(r10)
    6bba:	39 3c       	jmp	$+116    	;abs 0x6c2e
    6bbc:	0e 5d       	add	r13,	r14	
    6bbe:	0c 4f       	mov	r15,	r12	
    6bc0:	0c 5d       	add	r13,	r12	
    6bc2:	0b 4c       	mov	r12,	r11	
    6bc4:	0b de       	bis	r14,	r11	
    6bc6:	1b f3       	and	#1,	r11	;r3 As==01
    6bc8:	1b 24       	jz	$+56     	;abs 0x6c00
    6bca:	0b 4c       	mov	r12,	r11	
    6bcc:	0b ee       	xor	r14,	r11	
    6bce:	1b f3       	and	#1,	r11	;r3 As==01
    6bd0:	06 20       	jnz	$+14     	;abs 0x6bde
    6bd2:	3d 90 03 00 	cmp	#3,	r13	;#0x0003
    6bd6:	03 28       	jnc	$+8      	;abs 0x6bde
    6bd8:	0b 4e       	mov	r14,	r11	
    6bda:	1b f3       	and	#1,	r11	;r3 As==01
    6bdc:	01 3c       	jmp	$+4      	;abs 0x6be0
    6bde:	0b 4d       	mov	r13,	r11	
    6be0:	0d 8b       	sub	r11,	r13	
    6be2:	09 4e       	mov	r14,	r9	
    6be4:	0a 4c       	mov	r12,	r10	
    6be6:	08 4b       	mov	r11,	r8	
    6be8:	08 8c       	sub	r12,	r8	
    6bea:	3a 53       	add	#-1,	r10	;r3 As==11
    6bec:	39 53       	add	#-1,	r9	;r3 As==11
    6bee:	ea 49 00 00 	mov.b	@r9,	0(r10)	;0x0000(r10)
    6bf2:	07 4a       	mov	r10,	r7	
    6bf4:	07 58       	add	r8,	r7	
    6bf6:	f9 23       	jnz	$-12     	;abs 0x6bea
    6bf8:	3b e3       	inv	r11		
    6bfa:	1b 53       	inc	r11		
    6bfc:	0c 5b       	add	r11,	r12	
    6bfe:	0e 5b       	add	r11,	r14	
    6c00:	0b 4d       	mov	r13,	r11	
    6c02:	12 c3       	clrc			
    6c04:	0b 10       	rrc	r11		
    6c06:	0e 24       	jz	$+30     	;abs 0x6c24
    6c08:	0a 4b       	mov	r11,	r10	
    6c0a:	08 4e       	mov	r14,	r8	
    6c0c:	09 4c       	mov	r12,	r9	
    6c0e:	28 83       	decd	r8		
    6c10:	29 83       	decd	r9		
    6c12:	a9 48 00 00 	mov	@r8,	0(r9)	;0x0000(r9)
    6c16:	3a 53       	add	#-1,	r10	;r3 As==11
    6c18:	fa 23       	jnz	$-10     	;abs 0x6c0e
    6c1a:	0a 8b       	sub	r11,	r10	
    6c1c:	0b 4a       	mov	r10,	r11	
    6c1e:	0b 5b       	rla	r11		
    6c20:	0e 5b       	add	r11,	r14	
    6c22:	0c 5b       	add	r11,	r12	
    6c24:	1d f3       	and	#1,	r13	;r3 As==01
    6c26:	03 24       	jz	$+8      	;abs 0x6c2e
    6c28:	dc 4e ff ff ff ff 	mov.b	-1(r14),-1(r12)	;0xffff(r14), 0xffff(r12)
    6c2e:	37 41       	pop	r7		
    6c30:	38 41       	pop	r8		
    6c32:	39 41       	pop	r9		
    6c34:	3a 41       	pop	r10		
    6c36:	3b 41       	pop	r11		
    6c38:	30 41       	ret			

00006c3a <memset>:
    6c3a:	0b 12       	push	r11		
    6c3c:	0a 12       	push	r10		
    6c3e:	09 12       	push	r9		
    6c40:	08 12       	push	r8		
    6c42:	3d 90 06 00 	cmp	#6,	r13	;#0x0006
    6c46:	09 2c       	jc	$+20     	;abs 0x6c5a
    6c48:	0c 4f       	mov	r15,	r12	
    6c4a:	04 3c       	jmp	$+10     	;abs 0x6c54
    6c4c:	cc 4e 00 00 	mov.b	r14,	0(r12)	;0x0000(r12)
    6c50:	1c 53       	inc	r12		
    6c52:	3d 53       	add	#-1,	r13	;r3 As==11
    6c54:	0d 93       	tst	r13		
    6c56:	fa 23       	jnz	$-10     	;abs 0x6c4c
    6c58:	20 3c       	jmp	$+66     	;abs 0x6c9a
    6c5a:	4e 4e       	mov.b	r14,	r14	
    6c5c:	4b 4e       	mov.b	r14,	r11	
    6c5e:	0b 93       	tst	r11		
    6c60:	03 24       	jz	$+8      	;abs 0x6c68
    6c62:	0c 4b       	mov	r11,	r12	
    6c64:	8c 10       	swpb	r12		
    6c66:	0b dc       	bis	r12,	r11	
    6c68:	1f b3       	bit	#1,	r15	;r3 As==01
    6c6a:	06 24       	jz	$+14     	;abs 0x6c78
    6c6c:	3d 53       	add	#-1,	r13	;r3 As==11
    6c6e:	cf 4e 00 00 	mov.b	r14,	0(r15)	;0x0000(r15)
    6c72:	09 4f       	mov	r15,	r9	
    6c74:	19 53       	inc	r9		
    6c76:	01 3c       	jmp	$+4      	;abs 0x6c7a
    6c78:	09 4f       	mov	r15,	r9	
    6c7a:	0c 4d       	mov	r13,	r12	
    6c7c:	12 c3       	clrc			
    6c7e:	0c 10       	rrc	r12		
    6c80:	0a 49       	mov	r9,	r10	
    6c82:	08 4c       	mov	r12,	r8	
    6c84:	8a 4b 00 00 	mov	r11,	0(r10)	;0x0000(r10)
    6c88:	2a 53       	incd	r10		
    6c8a:	38 53       	add	#-1,	r8	;r3 As==11
    6c8c:	fb 23       	jnz	$-8      	;abs 0x6c84
    6c8e:	0c 5c       	rla	r12		
    6c90:	0c 59       	add	r9,	r12	
    6c92:	1d f3       	and	#1,	r13	;r3 As==01
    6c94:	02 24       	jz	$+6      	;abs 0x6c9a
    6c96:	cc 4e 00 00 	mov.b	r14,	0(r12)	;0x0000(r12)
    6c9a:	38 41       	pop	r8		
    6c9c:	39 41       	pop	r9		
    6c9e:	3a 41       	pop	r10		
    6ca0:	3b 41       	pop	r11		
    6ca2:	30 41       	ret			

00006ca4 <_unexpected_>:
    6ca4:	00 13       	reti			

Disassembly of section .vectors:

0000ffe0 <__ivtbl_16>:
    ffe0:	10 45 32 69 10 45 10 45 44 68 da 67 bc 67 10 45     .E2i.E.EDh.g.g.E
    fff0:	30 6a dc 69 10 45 10 45 1e 68 00 68 10 45 00 40     0j.i.E.E.h.h.E.@
